
PongGame.elf:     file format elf32-avr

Sections:
Idx Name          Size      VMA       LMA       File off  Algn
  0 .data         00000414  00800100  000012ee  00001382  2**0
                  CONTENTS, ALLOC, LOAD, DATA
  1 .text         000012ee  00000000  00000000  00000094  2**1
                  CONTENTS, ALLOC, LOAD, READONLY, CODE
  2 .bss          00000001  00800514  00800514  00001796  2**0
                  ALLOC
  3 .comment      0000005c  00000000  00000000  00001796  2**0
                  CONTENTS, READONLY
  4 .note.gnu.avr.deviceinfo 00000040  00000000  00000000  000017f4  2**2
                  CONTENTS, READONLY
  5 .debug_aranges 000000f8  00000000  00000000  00001834  2**0
                  CONTENTS, READONLY, DEBUGGING
  6 .debug_info   00001ccc  00000000  00000000  0000192c  2**0
                  CONTENTS, READONLY, DEBUGGING
  7 .debug_abbrev 00000a16  00000000  00000000  000035f8  2**0
                  CONTENTS, READONLY, DEBUGGING
  8 .debug_line   00000a1c  00000000  00000000  0000400e  2**0
                  CONTENTS, READONLY, DEBUGGING
  9 .debug_frame  00000394  00000000  00000000  00004a2c  2**2
                  CONTENTS, READONLY, DEBUGGING
 10 .debug_str    00000561  00000000  00000000  00004dc0  2**0
                  CONTENTS, READONLY, DEBUGGING
 11 .debug_loc    000015ab  00000000  00000000  00005321  2**0
                  CONTENTS, READONLY, DEBUGGING
 12 .debug_ranges 00000108  00000000  00000000  000068cc  2**0
                  CONTENTS, READONLY, DEBUGGING

Disassembly of section .text:

00000000 <__vectors>:
       0:	0c 94 b5 00 	jmp	0x16a	; 0x16a <__ctors_end>
       4:	0c 94 d2 00 	jmp	0x1a4	; 0x1a4 <__bad_interrupt>
       8:	0c 94 d2 00 	jmp	0x1a4	; 0x1a4 <__bad_interrupt>
       c:	0c 94 d2 00 	jmp	0x1a4	; 0x1a4 <__bad_interrupt>
      10:	0c 94 d2 00 	jmp	0x1a4	; 0x1a4 <__bad_interrupt>
      14:	0c 94 d2 00 	jmp	0x1a4	; 0x1a4 <__bad_interrupt>
      18:	0c 94 d2 00 	jmp	0x1a4	; 0x1a4 <__bad_interrupt>
      1c:	0c 94 d2 00 	jmp	0x1a4	; 0x1a4 <__bad_interrupt>
      20:	0c 94 d2 00 	jmp	0x1a4	; 0x1a4 <__bad_interrupt>
      24:	0c 94 d2 00 	jmp	0x1a4	; 0x1a4 <__bad_interrupt>
      28:	0c 94 d2 00 	jmp	0x1a4	; 0x1a4 <__bad_interrupt>
      2c:	0c 94 d2 00 	jmp	0x1a4	; 0x1a4 <__bad_interrupt>
      30:	0c 94 d2 00 	jmp	0x1a4	; 0x1a4 <__bad_interrupt>
      34:	0c 94 d2 00 	jmp	0x1a4	; 0x1a4 <__bad_interrupt>
      38:	0c 94 d2 00 	jmp	0x1a4	; 0x1a4 <__bad_interrupt>
      3c:	0c 94 d2 00 	jmp	0x1a4	; 0x1a4 <__bad_interrupt>
      40:	0c 94 d2 00 	jmp	0x1a4	; 0x1a4 <__bad_interrupt>
      44:	0c 94 d2 00 	jmp	0x1a4	; 0x1a4 <__bad_interrupt>
      48:	0c 94 d2 00 	jmp	0x1a4	; 0x1a4 <__bad_interrupt>
      4c:	0c 94 d2 00 	jmp	0x1a4	; 0x1a4 <__bad_interrupt>
      50:	0c 94 d2 00 	jmp	0x1a4	; 0x1a4 <__bad_interrupt>
      54:	0c 94 d2 00 	jmp	0x1a4	; 0x1a4 <__bad_interrupt>
      58:	0c 94 d2 00 	jmp	0x1a4	; 0x1a4 <__bad_interrupt>
      5c:	0c 94 d2 00 	jmp	0x1a4	; 0x1a4 <__bad_interrupt>
      60:	0c 94 d2 00 	jmp	0x1a4	; 0x1a4 <__bad_interrupt>
      64:	0c 94 d2 00 	jmp	0x1a4	; 0x1a4 <__bad_interrupt>

00000068 <__trampolines_end>:
      68:	6e 61       	ori	r22, 0x1E	; 30
      6a:	6e 00       	.word	0x006e	; ????

0000006c <__c.2332>:
      6c:	69 6e 66 00 00 40 7a 10 f3 5a 00 a0 72 4e 18 09     inf..@z..Z..rN..
      7c:	00 10 a5 d4 e8 00 00 e8 76 48 17 00 00 e4 0b 54     ........vH.....T
      8c:	02 00 00 ca 9a 3b 00 00 00 e1 f5 05 00 00 80 96     .....;..........
      9c:	98 00 00 00 40 42 0f 00 00 00 a0 86 01 00 00 00     ....@B..........
      ac:	10 27 00 00 00 00 e8 03 00 00 00 00 64 00 00 00     .'..........d...
      bc:	00 00 0a 00 00 00 00 00 01 00 00 00 00 00 2c 76     ..............,v
      cc:	d8 88 dc 67 4f 08 23 df c1 df ae 59 e1 b1 b7 96     ...gO.#....Y....
      dc:	e5 e3 e4 53 c6 3a e6 51 99 76 96 e8 e6 c2 84 26     ...S.:.Q.v.....&
      ec:	eb 89 8c 9b 62 ed 40 7c 6f fc ef bc 9c 9f 40 f2     ....b.@|o.....@.
      fc:	ba a5 6f a5 f4 90 05 5a 2a f7 5c 93 6b 6c f9 67     ..o....Z*.\.kl.g
     10c:	6d c1 1b fc e0 e4 0d 47 fe f5 20 e6 b5 00 d0 ed     m......G.. .....
     11c:	90 2e 03 00 94 35 77 05 00 80 84 1e 08 00 00 20     .....5w........ 
     12c:	4e 0a 00 00 00 c8 0c 33 33 33 33 0f 98 6e 12 83     N......3333..n..
     13c:	11 41 ef 8d 21 14 89 3b e6 55 16 cf fe e6 db 18     .A..!..;.U......
     14c:	d1 84 4b 38 1b f7 7c 1d 90 1d a4 bb e4 24 20 32     ..K8..|......$ 2
     15c:	84 72 5e 22 81 00 c9 f1 24 ec a1 e5 3d 27           .r^"....$...='

0000016a <__ctors_end>:
     16a:	11 24       	eor	r1, r1
     16c:	1f be       	out	0x3f, r1	; 63
     16e:	cf ef       	ldi	r28, 0xFF	; 255
     170:	d8 e0       	ldi	r29, 0x08	; 8
     172:	de bf       	out	0x3e, r29	; 62
     174:	cd bf       	out	0x3d, r28	; 61

00000176 <__do_copy_data>:
     176:	15 e0       	ldi	r17, 0x05	; 5
     178:	a0 e0       	ldi	r26, 0x00	; 0
     17a:	b1 e0       	ldi	r27, 0x01	; 1
     17c:	ee ee       	ldi	r30, 0xEE	; 238
     17e:	f2 e1       	ldi	r31, 0x12	; 18
     180:	02 c0       	rjmp	.+4      	; 0x186 <__do_copy_data+0x10>
     182:	05 90       	lpm	r0, Z+
     184:	0d 92       	st	X+, r0
     186:	a4 31       	cpi	r26, 0x14	; 20
     188:	b1 07       	cpc	r27, r17
     18a:	d9 f7       	brne	.-10     	; 0x182 <__do_copy_data+0xc>

0000018c <__do_clear_bss>:
     18c:	25 e0       	ldi	r18, 0x05	; 5
     18e:	a4 e1       	ldi	r26, 0x14	; 20
     190:	b5 e0       	ldi	r27, 0x05	; 5
     192:	01 c0       	rjmp	.+2      	; 0x196 <.do_clear_bss_start>

00000194 <.do_clear_bss_loop>:
     194:	1d 92       	st	X+, r1

00000196 <.do_clear_bss_start>:
     196:	a5 31       	cpi	r26, 0x15	; 21
     198:	b2 07       	cpc	r27, r18
     19a:	e1 f7       	brne	.-8      	; 0x194 <.do_clear_bss_loop>
     19c:	0e 94 3d 03 	call	0x67a	; 0x67a <main>
     1a0:	0c 94 75 09 	jmp	0x12ea	; 0x12ea <_exit>

000001a4 <__bad_interrupt>:
     1a4:	0c 94 00 00 	jmp	0	; 0x0 <__vectors>

000001a8 <lcd_command>:
void drawrect(uint8_t *buff,uint8_t x, uint8_t y, uint8_t w, uint8_t h,uint8_t color) {
	drawline(buff, x, y, x, (y + h), color);
	drawline(buff, x, y, (x + w), y, color);
	drawline(buff, (x + w), y, (x + w), (y + h), color);
	drawline(buff, x, (y + h), (x + w), (y + h), color);
}
     1a8:	5c 98       	cbi	0x0b, 4	; 11
     1aa:	27 e0       	ldi	r18, 0x07	; 7
     1ac:	30 e0       	ldi	r19, 0x00	; 0
     1ae:	90 e0       	ldi	r25, 0x00	; 0
     1b0:	5d 98       	cbi	0x0b, 5	; 11
     1b2:	ac 01       	movw	r20, r24
     1b4:	02 2e       	mov	r0, r18
     1b6:	02 c0       	rjmp	.+4      	; 0x1bc <lcd_command+0x14>
     1b8:	55 95       	asr	r21
     1ba:	47 95       	ror	r20
     1bc:	0a 94       	dec	r0
     1be:	e2 f7       	brpl	.-8      	; 0x1b8 <lcd_command+0x10>
     1c0:	40 ff       	sbrs	r20, 0
     1c2:	02 c0       	rjmp	.+4      	; 0x1c8 <lcd_command+0x20>
     1c4:	5e 9a       	sbi	0x0b, 6	; 11
     1c6:	01 c0       	rjmp	.+2      	; 0x1ca <lcd_command+0x22>
     1c8:	5e 98       	cbi	0x0b, 6	; 11
     1ca:	5d 9a       	sbi	0x0b, 5	; 11
     1cc:	21 50       	subi	r18, 0x01	; 1
     1ce:	31 09       	sbc	r19, r1
     1d0:	78 f7       	brcc	.-34     	; 0x1b0 <lcd_command+0x8>
     1d2:	08 95       	ret

000001d4 <lcd_init>:
     1d4:	56 9a       	sbi	0x0a, 6	; 10
     1d6:	55 9a       	sbi	0x0a, 5	; 10
     1d8:	54 9a       	sbi	0x0a, 4	; 10
     1da:	53 9a       	sbi	0x0a, 3	; 10
     1dc:	52 9a       	sbi	0x0a, 2	; 10
     1de:	5a 98       	cbi	0x0b, 2	; 11
     1e0:	5b 98       	cbi	0x0b, 3	; 11
     1e2:	2f e9       	ldi	r18, 0x9F	; 159
     1e4:	86 e8       	ldi	r24, 0x86	; 134
     1e6:	91 e0       	ldi	r25, 0x01	; 1
     1e8:	21 50       	subi	r18, 0x01	; 1
     1ea:	80 40       	sbci	r24, 0x00	; 0
     1ec:	90 40       	sbci	r25, 0x00	; 0
     1ee:	e1 f7       	brne	.-8      	; 0x1e8 <lcd_init+0x14>
     1f0:	00 c0       	rjmp	.+0      	; 0x1f2 <lcd_init+0x1e>
     1f2:	00 00       	nop
     1f4:	5b 9a       	sbi	0x0b, 3	; 11
     1f6:	83 ea       	ldi	r24, 0xA3	; 163
     1f8:	0e 94 d4 00 	call	0x1a8	; 0x1a8 <lcd_command>
     1fc:	80 ea       	ldi	r24, 0xA0	; 160
     1fe:	0e 94 d4 00 	call	0x1a8	; 0x1a8 <lcd_command>
     202:	80 ec       	ldi	r24, 0xC0	; 192
     204:	0e 94 d4 00 	call	0x1a8	; 0x1a8 <lcd_command>
     208:	80 e4       	ldi	r24, 0x40	; 64
     20a:	0e 94 d4 00 	call	0x1a8	; 0x1a8 <lcd_command>
     20e:	8c e2       	ldi	r24, 0x2C	; 44
     210:	0e 94 d4 00 	call	0x1a8	; 0x1a8 <lcd_command>
     214:	83 ed       	ldi	r24, 0xD3	; 211
     216:	90 e3       	ldi	r25, 0x30	; 48
     218:	01 97       	sbiw	r24, 0x01	; 1
     21a:	f1 f7       	brne	.-4      	; 0x218 <lcd_init+0x44>
     21c:	00 c0       	rjmp	.+0      	; 0x21e <lcd_init+0x4a>
     21e:	00 00       	nop
     220:	8e e2       	ldi	r24, 0x2E	; 46
     222:	0e 94 d4 00 	call	0x1a8	; 0x1a8 <lcd_command>
     226:	83 ed       	ldi	r24, 0xD3	; 211
     228:	90 e3       	ldi	r25, 0x30	; 48
     22a:	01 97       	sbiw	r24, 0x01	; 1
     22c:	f1 f7       	brne	.-4      	; 0x22a <lcd_init+0x56>
     22e:	00 c0       	rjmp	.+0      	; 0x230 <lcd_init+0x5c>
     230:	00 00       	nop
     232:	8f e2       	ldi	r24, 0x2F	; 47
     234:	0e 94 d4 00 	call	0x1a8	; 0x1a8 <lcd_command>
     238:	83 ec       	ldi	r24, 0xC3	; 195
     23a:	99 e0       	ldi	r25, 0x09	; 9
     23c:	01 97       	sbiw	r24, 0x01	; 1
     23e:	f1 f7       	brne	.-4      	; 0x23c <lcd_init+0x68>
     240:	00 c0       	rjmp	.+0      	; 0x242 <lcd_init+0x6e>
     242:	00 00       	nop
     244:	86 e2       	ldi	r24, 0x26	; 38
     246:	0e 94 d4 00 	call	0x1a8	; 0x1a8 <lcd_command>
     24a:	08 95       	ret

0000024c <lcd_data>:
     24c:	5c 9a       	sbi	0x0b, 4	; 11
     24e:	27 e0       	ldi	r18, 0x07	; 7
     250:	30 e0       	ldi	r19, 0x00	; 0
     252:	90 e0       	ldi	r25, 0x00	; 0
     254:	5d 98       	cbi	0x0b, 5	; 11
     256:	ac 01       	movw	r20, r24
     258:	02 2e       	mov	r0, r18
     25a:	02 c0       	rjmp	.+4      	; 0x260 <lcd_data+0x14>
     25c:	55 95       	asr	r21
     25e:	47 95       	ror	r20
     260:	0a 94       	dec	r0
     262:	e2 f7       	brpl	.-8      	; 0x25c <lcd_data+0x10>
     264:	40 ff       	sbrs	r20, 0
     266:	02 c0       	rjmp	.+4      	; 0x26c <lcd_data+0x20>
     268:	5e 9a       	sbi	0x0b, 6	; 11
     26a:	01 c0       	rjmp	.+2      	; 0x26e <lcd_data+0x22>
     26c:	5e 98       	cbi	0x0b, 6	; 11
     26e:	5d 9a       	sbi	0x0b, 5	; 11
     270:	21 50       	subi	r18, 0x01	; 1
     272:	31 09       	sbc	r19, r1
     274:	78 f7       	brcc	.-34     	; 0x254 <lcd_data+0x8>
     276:	08 95       	ret

00000278 <lcd_set_brightness>:
     278:	cf 93       	push	r28
     27a:	c8 2f       	mov	r28, r24
     27c:	81 e8       	ldi	r24, 0x81	; 129
     27e:	0e 94 d4 00 	call	0x1a8	; 0x1a8 <lcd_command>
     282:	8c 2f       	mov	r24, r28
     284:	8f 73       	andi	r24, 0x3F	; 63
     286:	0e 94 d4 00 	call	0x1a8	; 0x1a8 <lcd_command>
     28a:	cf 91       	pop	r28
     28c:	08 95       	ret

0000028e <write_buffer>:
     28e:	cf 92       	push	r12
     290:	df 92       	push	r13
     292:	ef 92       	push	r14
     294:	ff 92       	push	r15
     296:	0f 93       	push	r16
     298:	1f 93       	push	r17
     29a:	cf 93       	push	r28
     29c:	df 93       	push	r29
     29e:	0f 2e       	mov	r0, r31
     2a0:	f4 e0       	ldi	r31, 0x04	; 4
     2a2:	ef 2e       	mov	r14, r31
     2a4:	f5 e0       	ldi	r31, 0x05	; 5
     2a6:	ff 2e       	mov	r15, r31
     2a8:	f0 2d       	mov	r31, r0
     2aa:	ec 01       	movw	r28, r24
     2ac:	0f 2e       	mov	r0, r31
     2ae:	f4 e1       	ldi	r31, 0x14	; 20
     2b0:	cf 2e       	mov	r12, r31
     2b2:	f5 e0       	ldi	r31, 0x05	; 5
     2b4:	df 2e       	mov	r13, r31
     2b6:	f0 2d       	mov	r31, r0
     2b8:	f7 01       	movw	r30, r14
     2ba:	80 81       	ld	r24, Z
     2bc:	f2 e0       	ldi	r31, 0x02	; 2
     2be:	ef 0e       	add	r14, r31
     2c0:	f1 1c       	adc	r15, r1
     2c2:	80 6b       	ori	r24, 0xB0	; 176
     2c4:	0e 94 d4 00 	call	0x1a8	; 0x1a8 <lcd_command>
     2c8:	80 e0       	ldi	r24, 0x00	; 0
     2ca:	0e 94 d4 00 	call	0x1a8	; 0x1a8 <lcd_command>
     2ce:	80 e1       	ldi	r24, 0x10	; 16
     2d0:	0e 94 d4 00 	call	0x1a8	; 0x1a8 <lcd_command>
     2d4:	80 ee       	ldi	r24, 0xE0	; 224
     2d6:	0e 94 d4 00 	call	0x1a8	; 0x1a8 <lcd_command>
     2da:	8f ef       	ldi	r24, 0xFF	; 255
     2dc:	0e 94 26 01 	call	0x24c	; 0x24c <lcd_data>
     2e0:	8e 01       	movw	r16, r28
     2e2:	00 58       	subi	r16, 0x80	; 128
     2e4:	1f 4f       	sbci	r17, 0xFF	; 255
     2e6:	89 91       	ld	r24, Y+
     2e8:	0e 94 26 01 	call	0x24c	; 0x24c <lcd_data>
     2ec:	c0 17       	cp	r28, r16
     2ee:	d1 07       	cpc	r29, r17
     2f0:	d1 f7       	brne	.-12     	; 0x2e6 <write_buffer+0x58>
     2f2:	e8 01       	movw	r28, r16
     2f4:	ce 14       	cp	r12, r14
     2f6:	df 04       	cpc	r13, r15
     2f8:	f9 f6       	brne	.-66     	; 0x2b8 <write_buffer+0x2a>
     2fa:	df 91       	pop	r29
     2fc:	cf 91       	pop	r28
     2fe:	1f 91       	pop	r17
     300:	0f 91       	pop	r16
     302:	ff 90       	pop	r15
     304:	ef 90       	pop	r14
     306:	df 90       	pop	r13
     308:	cf 90       	pop	r12
     30a:	08 95       	ret

0000030c <clear_buffer>:
     30c:	20 e0       	ldi	r18, 0x00	; 0
     30e:	34 e0       	ldi	r19, 0x04	; 4
     310:	fc 01       	movw	r30, r24
     312:	a9 01       	movw	r20, r18
     314:	11 92       	st	Z+, r1
     316:	41 50       	subi	r20, 0x01	; 1
     318:	50 40       	sbci	r21, 0x00	; 0
     31a:	e1 f7       	brne	.-8      	; 0x314 <clear_buffer+0x8>
     31c:	08 95       	ret

0000031e <setpixel>:
     31e:	24 2f       	mov	r18, r20
     320:	26 95       	lsr	r18
     322:	26 95       	lsr	r18
     324:	26 95       	lsr	r18
     326:	e6 2f       	mov	r30, r22
     328:	f0 e0       	ldi	r31, 0x00	; 0
     32a:	30 e8       	ldi	r19, 0x80	; 128
     32c:	23 9f       	mul	r18, r19
     32e:	e0 0d       	add	r30, r0
     330:	f1 1d       	adc	r31, r1
     332:	11 24       	eor	r1, r1
     334:	e8 0f       	add	r30, r24
     336:	f9 1f       	adc	r31, r25
     338:	47 70       	andi	r20, 0x07	; 7
     33a:	80 e8       	ldi	r24, 0x80	; 128
     33c:	90 e0       	ldi	r25, 0x00	; 0
     33e:	02 c0       	rjmp	.+4      	; 0x344 <setpixel+0x26>
     340:	95 95       	asr	r25
     342:	87 95       	ror	r24
     344:	4a 95       	dec	r20
     346:	e2 f7       	brpl	.-8      	; 0x340 <setpixel+0x22>
     348:	90 81       	ld	r25, Z
     34a:	89 2b       	or	r24, r25
     34c:	80 83       	st	Z, r24
     34e:	08 95       	ret

00000350 <fillrect>:
     350:	8f 92       	push	r8
     352:	9f 92       	push	r9
     354:	af 92       	push	r10
     356:	bf 92       	push	r11
     358:	cf 92       	push	r12
     35a:	df 92       	push	r13
     35c:	ef 92       	push	r14
     35e:	ff 92       	push	r15
     360:	0f 93       	push	r16
     362:	1f 93       	push	r17
     364:	cf 93       	push	r28
     366:	df 93       	push	r29
     368:	6c 01       	movw	r12, r24
     36a:	d6 2f       	mov	r29, r22
     36c:	f4 2e       	mov	r15, r20
     36e:	86 2f       	mov	r24, r22
     370:	90 e0       	ldi	r25, 0x00	; 0
     372:	4c 01       	movw	r8, r24
     374:	82 0e       	add	r8, r18
     376:	91 1c       	adc	r9, r1
     378:	88 15       	cp	r24, r8
     37a:	99 05       	cpc	r25, r9
     37c:	ac f0       	brlt	.+42     	; 0x3a8 <fillrect+0x58>
     37e:	1e c0       	rjmp	.+60     	; 0x3bc <fillrect+0x6c>
     380:	cf 2d       	mov	r28, r15
     382:	2e 2d       	mov	r18, r14
     384:	4c 2f       	mov	r20, r28
     386:	6d 2f       	mov	r22, r29
     388:	c6 01       	movw	r24, r12
     38a:	0e 94 8f 01 	call	0x31e	; 0x31e <setpixel>
     38e:	cf 5f       	subi	r28, 0xFF	; 255
     390:	8c 2f       	mov	r24, r28
     392:	90 e0       	ldi	r25, 0x00	; 0
     394:	80 17       	cp	r24, r16
     396:	91 07       	cpc	r25, r17
     398:	a4 f3       	brlt	.-24     	; 0x382 <fillrect+0x32>
     39a:	df 5f       	subi	r29, 0xFF	; 255
     39c:	8d 2f       	mov	r24, r29
     39e:	90 e0       	ldi	r25, 0x00	; 0
     3a0:	88 15       	cp	r24, r8
     3a2:	99 05       	cpc	r25, r9
     3a4:	3c f0       	brlt	.+14     	; 0x3b4 <fillrect+0x64>
     3a6:	0a c0       	rjmp	.+20     	; 0x3bc <fillrect+0x6c>
     3a8:	a4 2e       	mov	r10, r20
     3aa:	b1 2c       	mov	r11, r1
     3ac:	c5 01       	movw	r24, r10
     3ae:	80 0f       	add	r24, r16
     3b0:	91 1d       	adc	r25, r1
     3b2:	8c 01       	movw	r16, r24
     3b4:	a0 16       	cp	r10, r16
     3b6:	b1 06       	cpc	r11, r17
     3b8:	1c f3       	brlt	.-58     	; 0x380 <fillrect+0x30>
     3ba:	ef cf       	rjmp	.-34     	; 0x39a <fillrect+0x4a>
     3bc:	df 91       	pop	r29
     3be:	cf 91       	pop	r28
     3c0:	1f 91       	pop	r17
     3c2:	0f 91       	pop	r16
     3c4:	ff 90       	pop	r15
     3c6:	ef 90       	pop	r14
     3c8:	df 90       	pop	r13
     3ca:	cf 90       	pop	r12
     3cc:	bf 90       	pop	r11
     3ce:	af 90       	pop	r10
     3d0:	9f 90       	pop	r9
     3d2:	8f 90       	pop	r8
     3d4:	08 95       	ret

000003d6 <drawcircle>:


// function to draw a circle
void drawcircle(uint8_t *buff,uint8_t x0, uint8_t y0, uint8_t r,uint8_t color) {
     3d6:	6f 92       	push	r6
     3d8:	7f 92       	push	r7
     3da:	8f 92       	push	r8
     3dc:	9f 92       	push	r9
     3de:	af 92       	push	r10
     3e0:	bf 92       	push	r11
     3e2:	cf 92       	push	r12
     3e4:	df 92       	push	r13
     3e6:	ef 92       	push	r14
     3e8:	ff 92       	push	r15
     3ea:	0f 93       	push	r16
     3ec:	1f 93       	push	r17
     3ee:	cf 93       	push	r28
     3f0:	df 93       	push	r29
     3f2:	ec 01       	movw	r28, r24
     3f4:	96 2e       	mov	r9, r22
     3f6:	84 2e       	mov	r8, r20
     3f8:	a2 2e       	mov	r10, r18

	int8_t x = 0;
	int8_t y = r;
     3fa:	f2 2e       	mov	r15, r18
	int8_t err = 3 - 2 * r;
     3fc:	82 2f       	mov	r24, r18
     3fe:	88 0f       	add	r24, r24
     400:	93 e0       	ldi	r25, 0x03	; 3
     402:	e9 2e       	mov	r14, r25
     404:	e8 1a       	sub	r14, r24
	setpixel(buff, x0 - x, y0 - y, color);
     406:	14 2f       	mov	r17, r20
     408:	12 1b       	sub	r17, r18
     40a:	20 2f       	mov	r18, r16
     40c:	41 2f       	mov	r20, r17
     40e:	ce 01       	movw	r24, r28
     410:	0e 94 8f 01 	call	0x31e	; 0x31e <setpixel>
	setpixel(buff, x0 + x, y0 - y, color);
     414:	20 2f       	mov	r18, r16
     416:	41 2f       	mov	r20, r17
     418:	69 2d       	mov	r22, r9
     41a:	ce 01       	movw	r24, r28
     41c:	0e 94 8f 01 	call	0x31e	; 0x31e <setpixel>
	setpixel(buff, x0 - x, y0 + y, color);
     420:	1a 2d       	mov	r17, r10
     422:	18 0d       	add	r17, r8
     424:	20 2f       	mov	r18, r16
     426:	41 2f       	mov	r20, r17
     428:	69 2d       	mov	r22, r9
     42a:	ce 01       	movw	r24, r28
     42c:	0e 94 8f 01 	call	0x31e	; 0x31e <setpixel>
	setpixel(buff, x0 + x, y0 + y, color);
     430:	20 2f       	mov	r18, r16
     432:	41 2f       	mov	r20, r17
     434:	69 2d       	mov	r22, r9
     436:	ce 01       	movw	r24, r28
     438:	0e 94 8f 01 	call	0x31e	; 0x31e <setpixel>
	setpixel(buff, x0 - y, y0 - x, color);
     43c:	d9 2c       	mov	r13, r9
     43e:	da 18       	sub	r13, r10
     440:	20 2f       	mov	r18, r16
     442:	48 2d       	mov	r20, r8
     444:	6d 2d       	mov	r22, r13
     446:	ce 01       	movw	r24, r28
     448:	0e 94 8f 01 	call	0x31e	; 0x31e <setpixel>
	setpixel(buff, x0 + y, y0 - x, color);
     44c:	1a 2d       	mov	r17, r10
     44e:	19 0d       	add	r17, r9
     450:	20 2f       	mov	r18, r16
     452:	48 2d       	mov	r20, r8
     454:	61 2f       	mov	r22, r17
     456:	ce 01       	movw	r24, r28
     458:	0e 94 8f 01 	call	0x31e	; 0x31e <setpixel>
	setpixel(buff, x0 - y, y0 + x, color);
     45c:	20 2f       	mov	r18, r16
     45e:	48 2d       	mov	r20, r8
     460:	6d 2d       	mov	r22, r13
     462:	ce 01       	movw	r24, r28
     464:	0e 94 8f 01 	call	0x31e	; 0x31e <setpixel>
	setpixel(buff, x0 + y,y0 + x, color);
     468:	20 2f       	mov	r18, r16
     46a:	48 2d       	mov	r20, r8
     46c:	61 2f       	mov	r22, r17
     46e:	ce 01       	movw	r24, r28
     470:	0e 94 8f 01 	call	0x31e	; 0x31e <setpixel>
	
	while(x < r){
     474:	b1 2c       	mov	r11, r1
     476:	1a 14       	cp	r1, r10
     478:	1b 04       	cpc	r1, r11
     47a:	0c f0       	brlt	.+2      	; 0x47e <__LOCK_REGION_LENGTH__+0x7e>
     47c:	62 c0       	rjmp	.+196    	; 0x542 <__LOCK_REGION_LENGTH__+0x142>
     47e:	71 2c       	mov	r7, r1
     480:	11 e0       	ldi	r17, 0x01	; 1
     482:	80 e0       	ldi	r24, 0x00	; 0
     484:	90 e0       	ldi	r25, 0x00	; 0

		if(err < 0){
     486:	ee 20       	and	r14, r14
     488:	44 f4       	brge	.+16     	; 0x49a <__LOCK_REGION_LENGTH__+0x9a>
			err += 4 * x + 6;
     48a:	8e 2d       	mov	r24, r14
     48c:	87 0d       	add	r24, r7
     48e:	0f 2e       	mov	r0, r31
     490:	f6 e0       	ldi	r31, 0x06	; 6
     492:	ef 2e       	mov	r14, r31
     494:	f0 2d       	mov	r31, r0
     496:	e8 0e       	add	r14, r24
     498:	09 c0       	rjmp	.+18     	; 0x4ac <__LOCK_REGION_LENGTH__+0xac>
		}
		else{

			err += 4 * (x - y) + 10;
     49a:	8f 19       	sub	r24, r15
     49c:	9a e0       	ldi	r25, 0x0A	; 10
     49e:	9e 0d       	add	r25, r14
     4a0:	e9 2e       	mov	r14, r25
     4a2:	24 e0       	ldi	r18, 0x04	; 4
     4a4:	82 9f       	mul	r24, r18
     4a6:	e0 0c       	add	r14, r0
     4a8:	11 24       	eor	r1, r1
			y--;
     4aa:	fa 94       	dec	r15
     4ac:	69 2c       	mov	r6, r9
     4ae:	61 1a       	sub	r6, r17
		}
		x++;
		setpixel(buff, x0 - x, y0 - y, color);
     4b0:	20 2f       	mov	r18, r16
     4b2:	d8 2c       	mov	r13, r8
     4b4:	df 18       	sub	r13, r15
     4b6:	4d 2d       	mov	r20, r13
     4b8:	66 2d       	mov	r22, r6
     4ba:	ce 01       	movw	r24, r28
     4bc:	0e 94 8f 01 	call	0x31e	; 0x31e <setpixel>
     4c0:	c9 2c       	mov	r12, r9
     4c2:	c1 0e       	add	r12, r17
		setpixel(buff, x0 + x, y0 - y, color);
     4c4:	20 2f       	mov	r18, r16
     4c6:	4d 2d       	mov	r20, r13
     4c8:	6c 2d       	mov	r22, r12
     4ca:	ce 01       	movw	r24, r28
     4cc:	0e 94 8f 01 	call	0x31e	; 0x31e <setpixel>
		setpixel(buff, x0 - x, y0 + y, color);
     4d0:	20 2f       	mov	r18, r16
     4d2:	d8 2c       	mov	r13, r8
     4d4:	df 0c       	add	r13, r15
     4d6:	4d 2d       	mov	r20, r13
     4d8:	66 2d       	mov	r22, r6
     4da:	ce 01       	movw	r24, r28
     4dc:	0e 94 8f 01 	call	0x31e	; 0x31e <setpixel>
		setpixel(buff, x0 + x, y0 + y, color);
     4e0:	20 2f       	mov	r18, r16
     4e2:	4d 2d       	mov	r20, r13
     4e4:	6c 2d       	mov	r22, r12
     4e6:	ce 01       	movw	r24, r28
     4e8:	0e 94 8f 01 	call	0x31e	; 0x31e <setpixel>
     4ec:	d8 2c       	mov	r13, r8
     4ee:	d1 1a       	sub	r13, r17
		setpixel(buff, x0 - y, y0 - x, color);
     4f0:	20 2f       	mov	r18, r16
     4f2:	4d 2d       	mov	r20, r13
     4f4:	c9 2c       	mov	r12, r9
     4f6:	cf 18       	sub	r12, r15
     4f8:	6c 2d       	mov	r22, r12
     4fa:	ce 01       	movw	r24, r28
     4fc:	0e 94 8f 01 	call	0x31e	; 0x31e <setpixel>
		setpixel(buff, x0 + y, y0 - x, color);
     500:	20 2f       	mov	r18, r16
     502:	4d 2d       	mov	r20, r13
     504:	d9 2c       	mov	r13, r9
     506:	df 0c       	add	r13, r15
     508:	6d 2d       	mov	r22, r13
     50a:	ce 01       	movw	r24, r28
     50c:	0e 94 8f 01 	call	0x31e	; 0x31e <setpixel>
     510:	68 2c       	mov	r6, r8
     512:	61 0e       	add	r6, r17
		setpixel(buff, x0 - y, y0 + x, color);
     514:	20 2f       	mov	r18, r16
     516:	46 2d       	mov	r20, r6
     518:	6c 2d       	mov	r22, r12
     51a:	ce 01       	movw	r24, r28
     51c:	0e 94 8f 01 	call	0x31e	; 0x31e <setpixel>
		setpixel(buff, x0 + y,y0 + x, color);
     520:	20 2f       	mov	r18, r16
     522:	46 2d       	mov	r20, r6
     524:	6d 2d       	mov	r22, r13
     526:	ce 01       	movw	r24, r28
     528:	0e 94 8f 01 	call	0x31e	; 0x31e <setpixel>
	setpixel(buff, x0 - y, y0 - x, color);
	setpixel(buff, x0 + y, y0 - x, color);
	setpixel(buff, x0 - y, y0 + x, color);
	setpixel(buff, x0 + y,y0 + x, color);
	
	while(x < r){
     52c:	81 2f       	mov	r24, r17
     52e:	01 2e       	mov	r0, r17
     530:	00 0c       	add	r0, r0
     532:	99 0b       	sbc	r25, r25
     534:	1f 5f       	subi	r17, 0xFF	; 255
     536:	24 e0       	ldi	r18, 0x04	; 4
     538:	72 0e       	add	r7, r18
     53a:	8a 15       	cp	r24, r10
     53c:	9b 05       	cpc	r25, r11
     53e:	0c f4       	brge	.+2      	; 0x542 <__LOCK_REGION_LENGTH__+0x142>
     540:	a2 cf       	rjmp	.-188    	; 0x486 <__LOCK_REGION_LENGTH__+0x86>
		setpixel(buff, x0 - y, y0 - x, color);
		setpixel(buff, x0 + y, y0 - x, color);
		setpixel(buff, x0 - y, y0 + x, color);
		setpixel(buff, x0 + y,y0 + x, color);
	}
}
     542:	df 91       	pop	r29
     544:	cf 91       	pop	r28
     546:	1f 91       	pop	r17
     548:	0f 91       	pop	r16
     54a:	ff 90       	pop	r15
     54c:	ef 90       	pop	r14
     54e:	df 90       	pop	r13
     550:	cf 90       	pop	r12
     552:	bf 90       	pop	r11
     554:	af 90       	pop	r10
     556:	9f 90       	pop	r9
     558:	8f 90       	pop	r8
     55a:	7f 90       	pop	r7
     55c:	6f 90       	pop	r6
     55e:	08 95       	ret

00000560 <init>:
}

int move_paddle_pl(int b_c, int p_c){
	
	return p_c;
}
     560:	57 9a       	sbi	0x0a, 7	; 10
     562:	5f 98       	cbi	0x0b, 7	; 11
     564:	8b b1       	in	r24, 0x0b	; 11
     566:	8b b9       	out	0x0b, r24	; 11
     568:	84 b1       	in	r24, 0x04	; 4
     56a:	85 60       	ori	r24, 0x05	; 5
     56c:	84 b9       	out	0x04, r24	; 4
     56e:	85 b1       	in	r24, 0x05	; 5
     570:	8a 7f       	andi	r24, 0xFA	; 250
     572:	85 b9       	out	0x05, r24	; 5
     574:	85 b1       	in	r24, 0x05	; 5
     576:	85 b9       	out	0x05, r24	; 5
     578:	0e 94 ea 00 	call	0x1d4	; 0x1d4 <lcd_init>
     57c:	8f ea       	ldi	r24, 0xAF	; 175
     57e:	0e 94 d4 00 	call	0x1a8	; 0x1a8 <lcd_command>
     582:	80 e2       	ldi	r24, 0x20	; 32
     584:	0e 94 3c 01 	call	0x278	; 0x278 <lcd_set_brightness>
     588:	84 e0       	ldi	r24, 0x04	; 4
     58a:	91 e0       	ldi	r25, 0x01	; 1
     58c:	0e 94 47 01 	call	0x28e	; 0x28e <write_buffer>
     590:	2a ea       	ldi	r18, 0xAA	; 170
     592:	36 ee       	ldi	r19, 0xE6	; 230
     594:	86 e9       	ldi	r24, 0x96	; 150
     596:	91 e0       	ldi	r25, 0x01	; 1
     598:	21 50       	subi	r18, 0x01	; 1
     59a:	30 40       	sbci	r19, 0x00	; 0
     59c:	80 40       	sbci	r24, 0x00	; 0
     59e:	90 40       	sbci	r25, 0x00	; 0
     5a0:	d9 f7       	brne	.-10     	; 0x598 <init+0x38>
     5a2:	00 00       	nop
     5a4:	84 e0       	ldi	r24, 0x04	; 4
     5a6:	91 e0       	ldi	r25, 0x01	; 1
     5a8:	0e 94 86 01 	call	0x30c	; 0x30c <clear_buffer>
     5ac:	2f ef       	ldi	r18, 0xFF	; 255
     5ae:	33 e2       	ldi	r19, 0x23	; 35
     5b0:	84 ef       	ldi	r24, 0xF4	; 244
     5b2:	21 50       	subi	r18, 0x01	; 1
     5b4:	30 40       	sbci	r19, 0x00	; 0
     5b6:	80 40       	sbci	r24, 0x00	; 0
     5b8:	e1 f7       	brne	.-8      	; 0x5b2 <init+0x52>
     5ba:	00 c0       	rjmp	.+0      	; 0x5bc <init+0x5c>
     5bc:	00 00       	nop
     5be:	80 91 14 05 	lds	r24, 0x0514	; 0x800514 <__data_end>
     5c2:	8f 5f       	subi	r24, 0xFF	; 255
     5c4:	80 93 14 05 	sts	0x0514, r24	; 0x800514 <__data_end>
     5c8:	08 95       	ret

000005ca <draw_background>:
     5ca:	ef 92       	push	r14
     5cc:	0f 93       	push	r16
     5ce:	01 e0       	ldi	r16, 0x01	; 1
     5d0:	23 e0       	ldi	r18, 0x03	; 3
     5d2:	4f e1       	ldi	r20, 0x1F	; 31
     5d4:	6f e3       	ldi	r22, 0x3F	; 63
     5d6:	84 e0       	ldi	r24, 0x04	; 4
     5d8:	91 e0       	ldi	r25, 0x01	; 1
     5da:	0e 94 eb 01 	call	0x3d6	; 0x3d6 <drawcircle>
     5de:	ee 24       	eor	r14, r14
     5e0:	e3 94       	inc	r14
     5e2:	0b e0       	ldi	r16, 0x0B	; 11
     5e4:	23 e0       	ldi	r18, 0x03	; 3
     5e6:	4b e1       	ldi	r20, 0x1B	; 27
     5e8:	62 e0       	ldi	r22, 0x02	; 2
     5ea:	84 e0       	ldi	r24, 0x04	; 4
     5ec:	91 e0       	ldi	r25, 0x01	; 1
     5ee:	0e 94 a8 01 	call	0x350	; 0x350 <fillrect>
     5f2:	23 e0       	ldi	r18, 0x03	; 3
     5f4:	4b e1       	ldi	r20, 0x1B	; 27
     5f6:	6a e7       	ldi	r22, 0x7A	; 122
     5f8:	84 e0       	ldi	r24, 0x04	; 4
     5fa:	91 e0       	ldi	r25, 0x01	; 1
     5fc:	0e 94 a8 01 	call	0x350	; 0x350 <fillrect>
     600:	84 e0       	ldi	r24, 0x04	; 4
     602:	91 e0       	ldi	r25, 0x01	; 1
     604:	0e 94 47 01 	call	0x28e	; 0x28e <write_buffer>
     608:	0f 91       	pop	r16
     60a:	ef 90       	pop	r14
     60c:	08 95       	ret

0000060e <move_paddle_ai>:
     60e:	fb 01       	movw	r30, r22
     610:	22 81       	ldd	r18, Z+2	; 0x02
     612:	33 81       	ldd	r19, Z+3	; 0x03
     614:	82 17       	cp	r24, r18
     616:	93 07       	cpc	r25, r19
     618:	14 f4       	brge	.+4      	; 0x61e <move_paddle_ai+0x10>
     61a:	01 96       	adiw	r24, 0x01	; 1
     61c:	08 95       	ret
     61e:	28 17       	cp	r18, r24
     620:	39 07       	cpc	r19, r25
     622:	0c f4       	brge	.+2      	; 0x626 <move_paddle_ai+0x18>
     624:	01 97       	sbiw	r24, 0x01	; 1
     626:	08 95       	ret

00000628 <draw_now>:

void draw_now(int c_ai, int c_pl, int c_ball[2]){
     628:	ef 92       	push	r14
     62a:	0f 93       	push	r16
     62c:	cf 93       	push	r28
     62e:	df 93       	push	r29
     630:	d8 2f       	mov	r29, r24
     632:	c6 2f       	mov	r28, r22
     634:	fa 01       	movw	r30, r20
	
	drawcircle(buff, c_ball[0], c_ball[1], 3, BLACK);
     636:	01 e0       	ldi	r16, 0x01	; 1
     638:	23 e0       	ldi	r18, 0x03	; 3
     63a:	42 81       	ldd	r20, Z+2	; 0x02
     63c:	60 81       	ld	r22, Z
     63e:	84 e0       	ldi	r24, 0x04	; 4
     640:	91 e0       	ldi	r25, 0x01	; 1
     642:	0e 94 eb 01 	call	0x3d6	; 0x3d6 <drawcircle>
		
	fillrect(buff, 2, c_ai, 3, 11, BLACK);
     646:	ee 24       	eor	r14, r14
     648:	e3 94       	inc	r14
     64a:	0b e0       	ldi	r16, 0x0B	; 11
     64c:	23 e0       	ldi	r18, 0x03	; 3
     64e:	4d 2f       	mov	r20, r29
     650:	62 e0       	ldi	r22, 0x02	; 2
     652:	84 e0       	ldi	r24, 0x04	; 4
     654:	91 e0       	ldi	r25, 0x01	; 1
     656:	0e 94 a8 01 	call	0x350	; 0x350 <fillrect>
	fillrect(buff, 122, c_pl, 3, 11, BLACK);
     65a:	23 e0       	ldi	r18, 0x03	; 3
     65c:	4c 2f       	mov	r20, r28
     65e:	6a e7       	ldi	r22, 0x7A	; 122
     660:	84 e0       	ldi	r24, 0x04	; 4
     662:	91 e0       	ldi	r25, 0x01	; 1
     664:	0e 94 a8 01 	call	0x350	; 0x350 <fillrect>
		
	write_buffer(buff);
     668:	84 e0       	ldi	r24, 0x04	; 4
     66a:	91 e0       	ldi	r25, 0x01	; 1
     66c:	0e 94 47 01 	call	0x28e	; 0x28e <write_buffer>
	return 0;
}
     670:	df 91       	pop	r29
     672:	cf 91       	pop	r28
     674:	0f 91       	pop	r16
     676:	ef 90       	pop	r14
     678:	08 95       	ret

0000067a <main>:

int main(void)
{
     67a:	cf 93       	push	r28
     67c:	df 93       	push	r29
     67e:	00 d0       	rcall	.+0      	; 0x680 <main+0x6>
     680:	00 d0       	rcall	.+0      	; 0x682 <main+0x8>
     682:	cd b7       	in	r28, 0x3d	; 61
     684:	de b7       	in	r29, 0x3e	; 62
	init();
     686:	0e 94 b0 02 	call	0x560	; 0x560 <init>
	choose_mood();
	draw_background();
     68a:	0e 94 e5 02 	call	0x5ca	; 0x5ca <draw_background>
	int		ball_c[2]	= {63, 31};
     68e:	8f e3       	ldi	r24, 0x3F	; 63
     690:	90 e0       	ldi	r25, 0x00	; 0
     692:	9a 83       	std	Y+2, r25	; 0x02
     694:	89 83       	std	Y+1, r24	; 0x01
     696:	8f e1       	ldi	r24, 0x1F	; 31
     698:	90 e0       	ldi	r25, 0x00	; 0
     69a:	9c 83       	std	Y+4, r25	; 0x04
     69c:	8b 83       	std	Y+3, r24	; 0x03
	int		paddle_ai	= 27;
	int		paddle_pl	= 27;
	int		ball_dx		= rand() %10 ;
     69e:	0e 94 7a 07 	call	0xef4	; 0xef4 <rand>
	int		ball_dy		= rand() %10 ;
     6a2:	0e 94 7a 07 	call	0xef4	; 0xef4 <rand>
{
	init();
	choose_mood();
	draw_background();
	int		ball_c[2]	= {63, 31};
	int		paddle_ai	= 27;
     6a6:	0b e1       	ldi	r16, 0x1B	; 27
     6a8:	10 e0       	ldi	r17, 0x00	; 0
	while (1)
	{
		while(if_dead || if_touched){
			draw_background();
		}
		ball_c[0]--;
     6aa:	89 81       	ldd	r24, Y+1	; 0x01
     6ac:	9a 81       	ldd	r25, Y+2	; 0x02
     6ae:	01 97       	sbiw	r24, 0x01	; 1
     6b0:	9a 83       	std	Y+2, r25	; 0x02
     6b2:	89 83       	std	Y+1, r24	; 0x01
		ball_c[1]--;
     6b4:	8b 81       	ldd	r24, Y+3	; 0x03
     6b6:	9c 81       	ldd	r25, Y+4	; 0x04
     6b8:	01 97       	sbiw	r24, 0x01	; 1
     6ba:	9c 83       	std	Y+4, r25	; 0x04
     6bc:	8b 83       	std	Y+3, r24	; 0x03
		//paddle_pl--;
		//paddle_ai++;
		//ball_c, ball_dx, ball_dy = move_ball();
		//move_paddle_pl();
		paddle_ai = move_paddle_ai(paddle_ai,ball_c);
     6be:	be 01       	movw	r22, r28
     6c0:	6f 5f       	subi	r22, 0xFF	; 255
     6c2:	7f 4f       	sbci	r23, 0xFF	; 255
     6c4:	c8 01       	movw	r24, r16
     6c6:	0e 94 07 03 	call	0x60e	; 0x60e <move_paddle_ai>
     6ca:	8c 01       	movw	r16, r24
		paddle_pl = move_paddle_ai(paddle_pl,ball_c);
		draw_now(paddle_ai,paddle_pl,ball_c);
     6cc:	ae 01       	movw	r20, r28
     6ce:	4f 5f       	subi	r20, 0xFF	; 255
     6d0:	5f 4f       	sbci	r21, 0xFF	; 255
     6d2:	bc 01       	movw	r22, r24
     6d4:	0e 94 14 03 	call	0x628	; 0x628 <draw_now>
	#else
		//round up by default
		__ticks_dc = (uint32_t)(ceil(fabs(__tmp)));
	#endif

	__builtin_avr_delay_cycles(__ticks_dc);
     6d8:	2f ef       	ldi	r18, 0xFF	; 255
     6da:	81 ee       	ldi	r24, 0xE1	; 225
     6dc:	94 e0       	ldi	r25, 0x04	; 4
     6de:	21 50       	subi	r18, 0x01	; 1
     6e0:	80 40       	sbci	r24, 0x00	; 0
     6e2:	90 40       	sbci	r25, 0x00	; 0
     6e4:	e1 f7       	brne	.-8      	; 0x6de <main+0x64>
     6e6:	00 c0       	rjmp	.+0      	; 0x6e8 <main+0x6e>
     6e8:	00 00       	nop
		_delay_ms(100);
		clear_buffer(buff);
     6ea:	84 e0       	ldi	r24, 0x04	; 4
     6ec:	91 e0       	ldi	r25, 0x01	; 1
     6ee:	0e 94 86 01 	call	0x30c	; 0x30c <clear_buffer>
     6f2:	db cf       	rjmp	.-74     	; 0x6aa <main+0x30>

000006f4 <vfprintf>:
     6f4:	a0 e1       	ldi	r26, 0x10	; 16
     6f6:	b0 e0       	ldi	r27, 0x00	; 0
     6f8:	e0 e8       	ldi	r30, 0x80	; 128
     6fa:	f3 e0       	ldi	r31, 0x03	; 3
     6fc:	0c 94 f7 06 	jmp	0xdee	; 0xdee <__prologue_saves__>
     700:	7c 01       	movw	r14, r24
     702:	1b 01       	movw	r2, r22
     704:	6a 01       	movw	r12, r20
     706:	fc 01       	movw	r30, r24
     708:	17 82       	std	Z+7, r1	; 0x07
     70a:	16 82       	std	Z+6, r1	; 0x06
     70c:	83 81       	ldd	r24, Z+3	; 0x03
     70e:	81 ff       	sbrs	r24, 1
     710:	44 c3       	rjmp	.+1672   	; 0xd9a <__stack+0x49b>
     712:	9e 01       	movw	r18, r28
     714:	2f 5f       	subi	r18, 0xFF	; 255
     716:	3f 4f       	sbci	r19, 0xFF	; 255
     718:	39 01       	movw	r6, r18
     71a:	f7 01       	movw	r30, r14
     71c:	93 81       	ldd	r25, Z+3	; 0x03
     71e:	f1 01       	movw	r30, r2
     720:	93 fd       	sbrc	r25, 3
     722:	85 91       	lpm	r24, Z+
     724:	93 ff       	sbrs	r25, 3
     726:	81 91       	ld	r24, Z+
     728:	1f 01       	movw	r2, r30
     72a:	88 23       	and	r24, r24
     72c:	09 f4       	brne	.+2      	; 0x730 <vfprintf+0x3c>
     72e:	31 c3       	rjmp	.+1634   	; 0xd92 <__stack+0x493>
     730:	85 32       	cpi	r24, 0x25	; 37
     732:	39 f4       	brne	.+14     	; 0x742 <vfprintf+0x4e>
     734:	93 fd       	sbrc	r25, 3
     736:	85 91       	lpm	r24, Z+
     738:	93 ff       	sbrs	r25, 3
     73a:	81 91       	ld	r24, Z+
     73c:	1f 01       	movw	r2, r30
     73e:	85 32       	cpi	r24, 0x25	; 37
     740:	39 f4       	brne	.+14     	; 0x750 <vfprintf+0x5c>
     742:	b7 01       	movw	r22, r14
     744:	90 e0       	ldi	r25, 0x00	; 0
     746:	0e 94 78 08 	call	0x10f0	; 0x10f0 <fputc>
     74a:	56 01       	movw	r10, r12
     74c:	65 01       	movw	r12, r10
     74e:	e5 cf       	rjmp	.-54     	; 0x71a <vfprintf+0x26>
     750:	10 e0       	ldi	r17, 0x00	; 0
     752:	51 2c       	mov	r5, r1
     754:	91 2c       	mov	r9, r1
     756:	ff e1       	ldi	r31, 0x1F	; 31
     758:	f9 15       	cp	r31, r9
     75a:	d8 f0       	brcs	.+54     	; 0x792 <vfprintf+0x9e>
     75c:	8b 32       	cpi	r24, 0x2B	; 43
     75e:	79 f0       	breq	.+30     	; 0x77e <vfprintf+0x8a>
     760:	38 f4       	brcc	.+14     	; 0x770 <vfprintf+0x7c>
     762:	80 32       	cpi	r24, 0x20	; 32
     764:	79 f0       	breq	.+30     	; 0x784 <vfprintf+0x90>
     766:	83 32       	cpi	r24, 0x23	; 35
     768:	a1 f4       	brne	.+40     	; 0x792 <vfprintf+0x9e>
     76a:	f9 2d       	mov	r31, r9
     76c:	f0 61       	ori	r31, 0x10	; 16
     76e:	2e c0       	rjmp	.+92     	; 0x7cc <vfprintf+0xd8>
     770:	8d 32       	cpi	r24, 0x2D	; 45
     772:	61 f0       	breq	.+24     	; 0x78c <vfprintf+0x98>
     774:	80 33       	cpi	r24, 0x30	; 48
     776:	69 f4       	brne	.+26     	; 0x792 <vfprintf+0x9e>
     778:	29 2d       	mov	r18, r9
     77a:	21 60       	ori	r18, 0x01	; 1
     77c:	2d c0       	rjmp	.+90     	; 0x7d8 <vfprintf+0xe4>
     77e:	39 2d       	mov	r19, r9
     780:	32 60       	ori	r19, 0x02	; 2
     782:	93 2e       	mov	r9, r19
     784:	89 2d       	mov	r24, r9
     786:	84 60       	ori	r24, 0x04	; 4
     788:	98 2e       	mov	r9, r24
     78a:	2a c0       	rjmp	.+84     	; 0x7e0 <vfprintf+0xec>
     78c:	e9 2d       	mov	r30, r9
     78e:	e8 60       	ori	r30, 0x08	; 8
     790:	15 c0       	rjmp	.+42     	; 0x7bc <vfprintf+0xc8>
     792:	97 fc       	sbrc	r9, 7
     794:	2d c0       	rjmp	.+90     	; 0x7f0 <vfprintf+0xfc>
     796:	20 ed       	ldi	r18, 0xD0	; 208
     798:	28 0f       	add	r18, r24
     79a:	2a 30       	cpi	r18, 0x0A	; 10
     79c:	88 f4       	brcc	.+34     	; 0x7c0 <vfprintf+0xcc>
     79e:	96 fe       	sbrs	r9, 6
     7a0:	06 c0       	rjmp	.+12     	; 0x7ae <vfprintf+0xba>
     7a2:	3a e0       	ldi	r19, 0x0A	; 10
     7a4:	13 9f       	mul	r17, r19
     7a6:	20 0d       	add	r18, r0
     7a8:	11 24       	eor	r1, r1
     7aa:	12 2f       	mov	r17, r18
     7ac:	19 c0       	rjmp	.+50     	; 0x7e0 <vfprintf+0xec>
     7ae:	8a e0       	ldi	r24, 0x0A	; 10
     7b0:	58 9e       	mul	r5, r24
     7b2:	20 0d       	add	r18, r0
     7b4:	11 24       	eor	r1, r1
     7b6:	52 2e       	mov	r5, r18
     7b8:	e9 2d       	mov	r30, r9
     7ba:	e0 62       	ori	r30, 0x20	; 32
     7bc:	9e 2e       	mov	r9, r30
     7be:	10 c0       	rjmp	.+32     	; 0x7e0 <vfprintf+0xec>
     7c0:	8e 32       	cpi	r24, 0x2E	; 46
     7c2:	31 f4       	brne	.+12     	; 0x7d0 <vfprintf+0xdc>
     7c4:	96 fc       	sbrc	r9, 6
     7c6:	e5 c2       	rjmp	.+1482   	; 0xd92 <__stack+0x493>
     7c8:	f9 2d       	mov	r31, r9
     7ca:	f0 64       	ori	r31, 0x40	; 64
     7cc:	9f 2e       	mov	r9, r31
     7ce:	08 c0       	rjmp	.+16     	; 0x7e0 <vfprintf+0xec>
     7d0:	8c 36       	cpi	r24, 0x6C	; 108
     7d2:	21 f4       	brne	.+8      	; 0x7dc <vfprintf+0xe8>
     7d4:	29 2d       	mov	r18, r9
     7d6:	20 68       	ori	r18, 0x80	; 128
     7d8:	92 2e       	mov	r9, r18
     7da:	02 c0       	rjmp	.+4      	; 0x7e0 <vfprintf+0xec>
     7dc:	88 36       	cpi	r24, 0x68	; 104
     7de:	41 f4       	brne	.+16     	; 0x7f0 <vfprintf+0xfc>
     7e0:	f1 01       	movw	r30, r2
     7e2:	93 fd       	sbrc	r25, 3
     7e4:	85 91       	lpm	r24, Z+
     7e6:	93 ff       	sbrs	r25, 3
     7e8:	81 91       	ld	r24, Z+
     7ea:	1f 01       	movw	r2, r30
     7ec:	81 11       	cpse	r24, r1
     7ee:	b3 cf       	rjmp	.-154    	; 0x756 <vfprintf+0x62>
     7f0:	9b eb       	ldi	r25, 0xBB	; 187
     7f2:	98 0f       	add	r25, r24
     7f4:	93 30       	cpi	r25, 0x03	; 3
     7f6:	20 f4       	brcc	.+8      	; 0x800 <vfprintf+0x10c>
     7f8:	99 2d       	mov	r25, r9
     7fa:	90 61       	ori	r25, 0x10	; 16
     7fc:	80 5e       	subi	r24, 0xE0	; 224
     7fe:	07 c0       	rjmp	.+14     	; 0x80e <vfprintf+0x11a>
     800:	9b e9       	ldi	r25, 0x9B	; 155
     802:	98 0f       	add	r25, r24
     804:	93 30       	cpi	r25, 0x03	; 3
     806:	08 f0       	brcs	.+2      	; 0x80a <vfprintf+0x116>
     808:	66 c1       	rjmp	.+716    	; 0xad6 <__stack+0x1d7>
     80a:	99 2d       	mov	r25, r9
     80c:	9f 7e       	andi	r25, 0xEF	; 239
     80e:	96 ff       	sbrs	r25, 6
     810:	16 e0       	ldi	r17, 0x06	; 6
     812:	9f 73       	andi	r25, 0x3F	; 63
     814:	99 2e       	mov	r9, r25
     816:	85 36       	cpi	r24, 0x65	; 101
     818:	19 f4       	brne	.+6      	; 0x820 <vfprintf+0x12c>
     81a:	90 64       	ori	r25, 0x40	; 64
     81c:	99 2e       	mov	r9, r25
     81e:	08 c0       	rjmp	.+16     	; 0x830 <vfprintf+0x13c>
     820:	86 36       	cpi	r24, 0x66	; 102
     822:	21 f4       	brne	.+8      	; 0x82c <vfprintf+0x138>
     824:	39 2f       	mov	r19, r25
     826:	30 68       	ori	r19, 0x80	; 128
     828:	93 2e       	mov	r9, r19
     82a:	02 c0       	rjmp	.+4      	; 0x830 <vfprintf+0x13c>
     82c:	11 11       	cpse	r17, r1
     82e:	11 50       	subi	r17, 0x01	; 1
     830:	97 fe       	sbrs	r9, 7
     832:	07 c0       	rjmp	.+14     	; 0x842 <vfprintf+0x14e>
     834:	1c 33       	cpi	r17, 0x3C	; 60
     836:	50 f4       	brcc	.+20     	; 0x84c <vfprintf+0x158>
     838:	44 24       	eor	r4, r4
     83a:	43 94       	inc	r4
     83c:	41 0e       	add	r4, r17
     83e:	27 e0       	ldi	r18, 0x07	; 7
     840:	0b c0       	rjmp	.+22     	; 0x858 <vfprintf+0x164>
     842:	18 30       	cpi	r17, 0x08	; 8
     844:	38 f0       	brcs	.+14     	; 0x854 <vfprintf+0x160>
     846:	27 e0       	ldi	r18, 0x07	; 7
     848:	17 e0       	ldi	r17, 0x07	; 7
     84a:	05 c0       	rjmp	.+10     	; 0x856 <vfprintf+0x162>
     84c:	27 e0       	ldi	r18, 0x07	; 7
     84e:	9c e3       	ldi	r25, 0x3C	; 60
     850:	49 2e       	mov	r4, r25
     852:	02 c0       	rjmp	.+4      	; 0x858 <vfprintf+0x164>
     854:	21 2f       	mov	r18, r17
     856:	41 2c       	mov	r4, r1
     858:	56 01       	movw	r10, r12
     85a:	84 e0       	ldi	r24, 0x04	; 4
     85c:	a8 0e       	add	r10, r24
     85e:	b1 1c       	adc	r11, r1
     860:	f6 01       	movw	r30, r12
     862:	60 81       	ld	r22, Z
     864:	71 81       	ldd	r23, Z+1	; 0x01
     866:	82 81       	ldd	r24, Z+2	; 0x02
     868:	93 81       	ldd	r25, Z+3	; 0x03
     86a:	04 2d       	mov	r16, r4
     86c:	a3 01       	movw	r20, r6
     86e:	0e 94 8a 07 	call	0xf14	; 0xf14 <__ftoa_engine>
     872:	6c 01       	movw	r12, r24
     874:	f9 81       	ldd	r31, Y+1	; 0x01
     876:	fc 87       	std	Y+12, r31	; 0x0c
     878:	f0 ff       	sbrs	r31, 0
     87a:	02 c0       	rjmp	.+4      	; 0x880 <vfprintf+0x18c>
     87c:	f3 ff       	sbrs	r31, 3
     87e:	06 c0       	rjmp	.+12     	; 0x88c <vfprintf+0x198>
     880:	91 fc       	sbrc	r9, 1
     882:	06 c0       	rjmp	.+12     	; 0x890 <vfprintf+0x19c>
     884:	92 fe       	sbrs	r9, 2
     886:	06 c0       	rjmp	.+12     	; 0x894 <vfprintf+0x1a0>
     888:	00 e2       	ldi	r16, 0x20	; 32
     88a:	05 c0       	rjmp	.+10     	; 0x896 <vfprintf+0x1a2>
     88c:	0d e2       	ldi	r16, 0x2D	; 45
     88e:	03 c0       	rjmp	.+6      	; 0x896 <vfprintf+0x1a2>
     890:	0b e2       	ldi	r16, 0x2B	; 43
     892:	01 c0       	rjmp	.+2      	; 0x896 <vfprintf+0x1a2>
     894:	00 e0       	ldi	r16, 0x00	; 0
     896:	8c 85       	ldd	r24, Y+12	; 0x0c
     898:	8c 70       	andi	r24, 0x0C	; 12
     89a:	19 f0       	breq	.+6      	; 0x8a2 <vfprintf+0x1ae>
     89c:	01 11       	cpse	r16, r1
     89e:	5a c2       	rjmp	.+1204   	; 0xd54 <__stack+0x455>
     8a0:	9b c2       	rjmp	.+1334   	; 0xdd8 <__stack+0x4d9>
     8a2:	97 fe       	sbrs	r9, 7
     8a4:	10 c0       	rjmp	.+32     	; 0x8c6 <vfprintf+0x1d2>
     8a6:	4c 0c       	add	r4, r12
     8a8:	fc 85       	ldd	r31, Y+12	; 0x0c
     8aa:	f4 ff       	sbrs	r31, 4
     8ac:	04 c0       	rjmp	.+8      	; 0x8b6 <vfprintf+0x1c2>
     8ae:	8a 81       	ldd	r24, Y+2	; 0x02
     8b0:	81 33       	cpi	r24, 0x31	; 49
     8b2:	09 f4       	brne	.+2      	; 0x8b6 <vfprintf+0x1c2>
     8b4:	4a 94       	dec	r4
     8b6:	14 14       	cp	r1, r4
     8b8:	74 f5       	brge	.+92     	; 0x916 <__stack+0x17>
     8ba:	28 e0       	ldi	r18, 0x08	; 8
     8bc:	24 15       	cp	r18, r4
     8be:	78 f5       	brcc	.+94     	; 0x91e <__stack+0x1f>
     8c0:	88 e0       	ldi	r24, 0x08	; 8
     8c2:	48 2e       	mov	r4, r24
     8c4:	2c c0       	rjmp	.+88     	; 0x91e <__stack+0x1f>
     8c6:	96 fc       	sbrc	r9, 6
     8c8:	2a c0       	rjmp	.+84     	; 0x91e <__stack+0x1f>
     8ca:	81 2f       	mov	r24, r17
     8cc:	90 e0       	ldi	r25, 0x00	; 0
     8ce:	8c 15       	cp	r24, r12
     8d0:	9d 05       	cpc	r25, r13
     8d2:	9c f0       	brlt	.+38     	; 0x8fa <vfprintf+0x206>
     8d4:	3c ef       	ldi	r19, 0xFC	; 252
     8d6:	c3 16       	cp	r12, r19
     8d8:	3f ef       	ldi	r19, 0xFF	; 255
     8da:	d3 06       	cpc	r13, r19
     8dc:	74 f0       	brlt	.+28     	; 0x8fa <vfprintf+0x206>
     8de:	89 2d       	mov	r24, r9
     8e0:	80 68       	ori	r24, 0x80	; 128
     8e2:	98 2e       	mov	r9, r24
     8e4:	0a c0       	rjmp	.+20     	; 0x8fa <vfprintf+0x206>
     8e6:	e2 e0       	ldi	r30, 0x02	; 2
     8e8:	f0 e0       	ldi	r31, 0x00	; 0
     8ea:	ec 0f       	add	r30, r28
     8ec:	fd 1f       	adc	r31, r29
     8ee:	e1 0f       	add	r30, r17
     8f0:	f1 1d       	adc	r31, r1
     8f2:	80 81       	ld	r24, Z
     8f4:	80 33       	cpi	r24, 0x30	; 48
     8f6:	19 f4       	brne	.+6      	; 0x8fe <vfprintf+0x20a>
     8f8:	11 50       	subi	r17, 0x01	; 1
     8fa:	11 11       	cpse	r17, r1
     8fc:	f4 cf       	rjmp	.-24     	; 0x8e6 <vfprintf+0x1f2>
     8fe:	97 fe       	sbrs	r9, 7
     900:	0e c0       	rjmp	.+28     	; 0x91e <__stack+0x1f>
     902:	44 24       	eor	r4, r4
     904:	43 94       	inc	r4
     906:	41 0e       	add	r4, r17
     908:	81 2f       	mov	r24, r17
     90a:	90 e0       	ldi	r25, 0x00	; 0
     90c:	c8 16       	cp	r12, r24
     90e:	d9 06       	cpc	r13, r25
     910:	2c f4       	brge	.+10     	; 0x91c <__stack+0x1d>
     912:	1c 19       	sub	r17, r12
     914:	04 c0       	rjmp	.+8      	; 0x91e <__stack+0x1f>
     916:	44 24       	eor	r4, r4
     918:	43 94       	inc	r4
     91a:	01 c0       	rjmp	.+2      	; 0x91e <__stack+0x1f>
     91c:	10 e0       	ldi	r17, 0x00	; 0
     91e:	97 fe       	sbrs	r9, 7
     920:	06 c0       	rjmp	.+12     	; 0x92e <__stack+0x2f>
     922:	1c 14       	cp	r1, r12
     924:	1d 04       	cpc	r1, r13
     926:	34 f4       	brge	.+12     	; 0x934 <__stack+0x35>
     928:	c6 01       	movw	r24, r12
     92a:	01 96       	adiw	r24, 0x01	; 1
     92c:	05 c0       	rjmp	.+10     	; 0x938 <__stack+0x39>
     92e:	85 e0       	ldi	r24, 0x05	; 5
     930:	90 e0       	ldi	r25, 0x00	; 0
     932:	02 c0       	rjmp	.+4      	; 0x938 <__stack+0x39>
     934:	81 e0       	ldi	r24, 0x01	; 1
     936:	90 e0       	ldi	r25, 0x00	; 0
     938:	01 11       	cpse	r16, r1
     93a:	01 96       	adiw	r24, 0x01	; 1
     93c:	11 23       	and	r17, r17
     93e:	31 f0       	breq	.+12     	; 0x94c <__stack+0x4d>
     940:	21 2f       	mov	r18, r17
     942:	30 e0       	ldi	r19, 0x00	; 0
     944:	2f 5f       	subi	r18, 0xFF	; 255
     946:	3f 4f       	sbci	r19, 0xFF	; 255
     948:	82 0f       	add	r24, r18
     94a:	93 1f       	adc	r25, r19
     94c:	25 2d       	mov	r18, r5
     94e:	30 e0       	ldi	r19, 0x00	; 0
     950:	82 17       	cp	r24, r18
     952:	93 07       	cpc	r25, r19
     954:	14 f4       	brge	.+4      	; 0x95a <__stack+0x5b>
     956:	58 1a       	sub	r5, r24
     958:	01 c0       	rjmp	.+2      	; 0x95c <__stack+0x5d>
     95a:	51 2c       	mov	r5, r1
     95c:	89 2d       	mov	r24, r9
     95e:	89 70       	andi	r24, 0x09	; 9
     960:	49 f4       	brne	.+18     	; 0x974 <__stack+0x75>
     962:	55 20       	and	r5, r5
     964:	39 f0       	breq	.+14     	; 0x974 <__stack+0x75>
     966:	b7 01       	movw	r22, r14
     968:	80 e2       	ldi	r24, 0x20	; 32
     96a:	90 e0       	ldi	r25, 0x00	; 0
     96c:	0e 94 78 08 	call	0x10f0	; 0x10f0 <fputc>
     970:	5a 94       	dec	r5
     972:	f7 cf       	rjmp	.-18     	; 0x962 <__stack+0x63>
     974:	00 23       	and	r16, r16
     976:	29 f0       	breq	.+10     	; 0x982 <__stack+0x83>
     978:	b7 01       	movw	r22, r14
     97a:	80 2f       	mov	r24, r16
     97c:	90 e0       	ldi	r25, 0x00	; 0
     97e:	0e 94 78 08 	call	0x10f0	; 0x10f0 <fputc>
     982:	93 fc       	sbrc	r9, 3
     984:	09 c0       	rjmp	.+18     	; 0x998 <__stack+0x99>
     986:	55 20       	and	r5, r5
     988:	39 f0       	breq	.+14     	; 0x998 <__stack+0x99>
     98a:	b7 01       	movw	r22, r14
     98c:	80 e3       	ldi	r24, 0x30	; 48
     98e:	90 e0       	ldi	r25, 0x00	; 0
     990:	0e 94 78 08 	call	0x10f0	; 0x10f0 <fputc>
     994:	5a 94       	dec	r5
     996:	f7 cf       	rjmp	.-18     	; 0x986 <__stack+0x87>
     998:	97 fe       	sbrs	r9, 7
     99a:	4c c0       	rjmp	.+152    	; 0xa34 <__stack+0x135>
     99c:	46 01       	movw	r8, r12
     99e:	d7 fe       	sbrs	r13, 7
     9a0:	02 c0       	rjmp	.+4      	; 0x9a6 <__stack+0xa7>
     9a2:	81 2c       	mov	r8, r1
     9a4:	91 2c       	mov	r9, r1
     9a6:	c6 01       	movw	r24, r12
     9a8:	88 19       	sub	r24, r8
     9aa:	99 09       	sbc	r25, r9
     9ac:	f3 01       	movw	r30, r6
     9ae:	e8 0f       	add	r30, r24
     9b0:	f9 1f       	adc	r31, r25
     9b2:	fe 87       	std	Y+14, r31	; 0x0e
     9b4:	ed 87       	std	Y+13, r30	; 0x0d
     9b6:	96 01       	movw	r18, r12
     9b8:	24 19       	sub	r18, r4
     9ba:	31 09       	sbc	r19, r1
     9bc:	38 8b       	std	Y+16, r19	; 0x10
     9be:	2f 87       	std	Y+15, r18	; 0x0f
     9c0:	01 2f       	mov	r16, r17
     9c2:	10 e0       	ldi	r17, 0x00	; 0
     9c4:	11 95       	neg	r17
     9c6:	01 95       	neg	r16
     9c8:	11 09       	sbc	r17, r1
     9ca:	3f ef       	ldi	r19, 0xFF	; 255
     9cc:	83 16       	cp	r8, r19
     9ce:	93 06       	cpc	r9, r19
     9d0:	29 f4       	brne	.+10     	; 0x9dc <__stack+0xdd>
     9d2:	b7 01       	movw	r22, r14
     9d4:	8e e2       	ldi	r24, 0x2E	; 46
     9d6:	90 e0       	ldi	r25, 0x00	; 0
     9d8:	0e 94 78 08 	call	0x10f0	; 0x10f0 <fputc>
     9dc:	c8 14       	cp	r12, r8
     9de:	d9 04       	cpc	r13, r9
     9e0:	4c f0       	brlt	.+18     	; 0x9f4 <__stack+0xf5>
     9e2:	8f 85       	ldd	r24, Y+15	; 0x0f
     9e4:	98 89       	ldd	r25, Y+16	; 0x10
     9e6:	88 15       	cp	r24, r8
     9e8:	99 05       	cpc	r25, r9
     9ea:	24 f4       	brge	.+8      	; 0x9f4 <__stack+0xf5>
     9ec:	ed 85       	ldd	r30, Y+13	; 0x0d
     9ee:	fe 85       	ldd	r31, Y+14	; 0x0e
     9f0:	81 81       	ldd	r24, Z+1	; 0x01
     9f2:	01 c0       	rjmp	.+2      	; 0x9f6 <__stack+0xf7>
     9f4:	80 e3       	ldi	r24, 0x30	; 48
     9f6:	f1 e0       	ldi	r31, 0x01	; 1
     9f8:	8f 1a       	sub	r8, r31
     9fa:	91 08       	sbc	r9, r1
     9fc:	2d 85       	ldd	r18, Y+13	; 0x0d
     9fe:	3e 85       	ldd	r19, Y+14	; 0x0e
     a00:	2f 5f       	subi	r18, 0xFF	; 255
     a02:	3f 4f       	sbci	r19, 0xFF	; 255
     a04:	3e 87       	std	Y+14, r19	; 0x0e
     a06:	2d 87       	std	Y+13, r18	; 0x0d
     a08:	80 16       	cp	r8, r16
     a0a:	91 06       	cpc	r9, r17
     a0c:	2c f0       	brlt	.+10     	; 0xa18 <__stack+0x119>
     a0e:	b7 01       	movw	r22, r14
     a10:	90 e0       	ldi	r25, 0x00	; 0
     a12:	0e 94 78 08 	call	0x10f0	; 0x10f0 <fputc>
     a16:	d9 cf       	rjmp	.-78     	; 0x9ca <__stack+0xcb>
     a18:	c8 14       	cp	r12, r8
     a1a:	d9 04       	cpc	r13, r9
     a1c:	41 f4       	brne	.+16     	; 0xa2e <__stack+0x12f>
     a1e:	9a 81       	ldd	r25, Y+2	; 0x02
     a20:	96 33       	cpi	r25, 0x36	; 54
     a22:	20 f4       	brcc	.+8      	; 0xa2c <__stack+0x12d>
     a24:	95 33       	cpi	r25, 0x35	; 53
     a26:	19 f4       	brne	.+6      	; 0xa2e <__stack+0x12f>
     a28:	3c 85       	ldd	r19, Y+12	; 0x0c
     a2a:	34 ff       	sbrs	r19, 4
     a2c:	81 e3       	ldi	r24, 0x31	; 49
     a2e:	b7 01       	movw	r22, r14
     a30:	90 e0       	ldi	r25, 0x00	; 0
     a32:	4e c0       	rjmp	.+156    	; 0xad0 <__stack+0x1d1>
     a34:	8a 81       	ldd	r24, Y+2	; 0x02
     a36:	81 33       	cpi	r24, 0x31	; 49
     a38:	19 f0       	breq	.+6      	; 0xa40 <__stack+0x141>
     a3a:	9c 85       	ldd	r25, Y+12	; 0x0c
     a3c:	9f 7e       	andi	r25, 0xEF	; 239
     a3e:	9c 87       	std	Y+12, r25	; 0x0c
     a40:	b7 01       	movw	r22, r14
     a42:	90 e0       	ldi	r25, 0x00	; 0
     a44:	0e 94 78 08 	call	0x10f0	; 0x10f0 <fputc>
     a48:	11 11       	cpse	r17, r1
     a4a:	05 c0       	rjmp	.+10     	; 0xa56 <__stack+0x157>
     a4c:	94 fc       	sbrc	r9, 4
     a4e:	18 c0       	rjmp	.+48     	; 0xa80 <__stack+0x181>
     a50:	85 e6       	ldi	r24, 0x65	; 101
     a52:	90 e0       	ldi	r25, 0x00	; 0
     a54:	17 c0       	rjmp	.+46     	; 0xa84 <__stack+0x185>
     a56:	b7 01       	movw	r22, r14
     a58:	8e e2       	ldi	r24, 0x2E	; 46
     a5a:	90 e0       	ldi	r25, 0x00	; 0
     a5c:	0e 94 78 08 	call	0x10f0	; 0x10f0 <fputc>
     a60:	1e 5f       	subi	r17, 0xFE	; 254
     a62:	82 e0       	ldi	r24, 0x02	; 2
     a64:	01 e0       	ldi	r16, 0x01	; 1
     a66:	08 0f       	add	r16, r24
     a68:	f3 01       	movw	r30, r6
     a6a:	e8 0f       	add	r30, r24
     a6c:	f1 1d       	adc	r31, r1
     a6e:	80 81       	ld	r24, Z
     a70:	b7 01       	movw	r22, r14
     a72:	90 e0       	ldi	r25, 0x00	; 0
     a74:	0e 94 78 08 	call	0x10f0	; 0x10f0 <fputc>
     a78:	80 2f       	mov	r24, r16
     a7a:	01 13       	cpse	r16, r17
     a7c:	f3 cf       	rjmp	.-26     	; 0xa64 <__stack+0x165>
     a7e:	e6 cf       	rjmp	.-52     	; 0xa4c <__stack+0x14d>
     a80:	85 e4       	ldi	r24, 0x45	; 69
     a82:	90 e0       	ldi	r25, 0x00	; 0
     a84:	b7 01       	movw	r22, r14
     a86:	0e 94 78 08 	call	0x10f0	; 0x10f0 <fputc>
     a8a:	d7 fc       	sbrc	r13, 7
     a8c:	06 c0       	rjmp	.+12     	; 0xa9a <__stack+0x19b>
     a8e:	c1 14       	cp	r12, r1
     a90:	d1 04       	cpc	r13, r1
     a92:	41 f4       	brne	.+16     	; 0xaa4 <__stack+0x1a5>
     a94:	ec 85       	ldd	r30, Y+12	; 0x0c
     a96:	e4 ff       	sbrs	r30, 4
     a98:	05 c0       	rjmp	.+10     	; 0xaa4 <__stack+0x1a5>
     a9a:	d1 94       	neg	r13
     a9c:	c1 94       	neg	r12
     a9e:	d1 08       	sbc	r13, r1
     aa0:	8d e2       	ldi	r24, 0x2D	; 45
     aa2:	01 c0       	rjmp	.+2      	; 0xaa6 <__stack+0x1a7>
     aa4:	8b e2       	ldi	r24, 0x2B	; 43
     aa6:	b7 01       	movw	r22, r14
     aa8:	90 e0       	ldi	r25, 0x00	; 0
     aaa:	0e 94 78 08 	call	0x10f0	; 0x10f0 <fputc>
     aae:	80 e3       	ldi	r24, 0x30	; 48
     ab0:	2a e0       	ldi	r18, 0x0A	; 10
     ab2:	c2 16       	cp	r12, r18
     ab4:	d1 04       	cpc	r13, r1
     ab6:	2c f0       	brlt	.+10     	; 0xac2 <__stack+0x1c3>
     ab8:	8f 5f       	subi	r24, 0xFF	; 255
     aba:	fa e0       	ldi	r31, 0x0A	; 10
     abc:	cf 1a       	sub	r12, r31
     abe:	d1 08       	sbc	r13, r1
     ac0:	f7 cf       	rjmp	.-18     	; 0xab0 <__stack+0x1b1>
     ac2:	b7 01       	movw	r22, r14
     ac4:	90 e0       	ldi	r25, 0x00	; 0
     ac6:	0e 94 78 08 	call	0x10f0	; 0x10f0 <fputc>
     aca:	b7 01       	movw	r22, r14
     acc:	c6 01       	movw	r24, r12
     ace:	c0 96       	adiw	r24, 0x30	; 48
     ad0:	0e 94 78 08 	call	0x10f0	; 0x10f0 <fputc>
     ad4:	54 c1       	rjmp	.+680    	; 0xd7e <__stack+0x47f>
     ad6:	83 36       	cpi	r24, 0x63	; 99
     ad8:	31 f0       	breq	.+12     	; 0xae6 <__stack+0x1e7>
     ada:	83 37       	cpi	r24, 0x73	; 115
     adc:	79 f0       	breq	.+30     	; 0xafc <__stack+0x1fd>
     ade:	83 35       	cpi	r24, 0x53	; 83
     ae0:	09 f0       	breq	.+2      	; 0xae4 <__stack+0x1e5>
     ae2:	56 c0       	rjmp	.+172    	; 0xb90 <__stack+0x291>
     ae4:	20 c0       	rjmp	.+64     	; 0xb26 <__stack+0x227>
     ae6:	56 01       	movw	r10, r12
     ae8:	32 e0       	ldi	r19, 0x02	; 2
     aea:	a3 0e       	add	r10, r19
     aec:	b1 1c       	adc	r11, r1
     aee:	f6 01       	movw	r30, r12
     af0:	80 81       	ld	r24, Z
     af2:	89 83       	std	Y+1, r24	; 0x01
     af4:	01 e0       	ldi	r16, 0x01	; 1
     af6:	10 e0       	ldi	r17, 0x00	; 0
     af8:	63 01       	movw	r12, r6
     afa:	12 c0       	rjmp	.+36     	; 0xb20 <__stack+0x221>
     afc:	56 01       	movw	r10, r12
     afe:	f2 e0       	ldi	r31, 0x02	; 2
     b00:	af 0e       	add	r10, r31
     b02:	b1 1c       	adc	r11, r1
     b04:	f6 01       	movw	r30, r12
     b06:	c0 80       	ld	r12, Z
     b08:	d1 80       	ldd	r13, Z+1	; 0x01
     b0a:	96 fe       	sbrs	r9, 6
     b0c:	03 c0       	rjmp	.+6      	; 0xb14 <__stack+0x215>
     b0e:	61 2f       	mov	r22, r17
     b10:	70 e0       	ldi	r23, 0x00	; 0
     b12:	02 c0       	rjmp	.+4      	; 0xb18 <__stack+0x219>
     b14:	6f ef       	ldi	r22, 0xFF	; 255
     b16:	7f ef       	ldi	r23, 0xFF	; 255
     b18:	c6 01       	movw	r24, r12
     b1a:	0e 94 6d 08 	call	0x10da	; 0x10da <strnlen>
     b1e:	8c 01       	movw	r16, r24
     b20:	f9 2d       	mov	r31, r9
     b22:	ff 77       	andi	r31, 0x7F	; 127
     b24:	14 c0       	rjmp	.+40     	; 0xb4e <__stack+0x24f>
     b26:	56 01       	movw	r10, r12
     b28:	22 e0       	ldi	r18, 0x02	; 2
     b2a:	a2 0e       	add	r10, r18
     b2c:	b1 1c       	adc	r11, r1
     b2e:	f6 01       	movw	r30, r12
     b30:	c0 80       	ld	r12, Z
     b32:	d1 80       	ldd	r13, Z+1	; 0x01
     b34:	96 fe       	sbrs	r9, 6
     b36:	03 c0       	rjmp	.+6      	; 0xb3e <__stack+0x23f>
     b38:	61 2f       	mov	r22, r17
     b3a:	70 e0       	ldi	r23, 0x00	; 0
     b3c:	02 c0       	rjmp	.+4      	; 0xb42 <__stack+0x243>
     b3e:	6f ef       	ldi	r22, 0xFF	; 255
     b40:	7f ef       	ldi	r23, 0xFF	; 255
     b42:	c6 01       	movw	r24, r12
     b44:	0e 94 62 08 	call	0x10c4	; 0x10c4 <strnlen_P>
     b48:	8c 01       	movw	r16, r24
     b4a:	f9 2d       	mov	r31, r9
     b4c:	f0 68       	ori	r31, 0x80	; 128
     b4e:	9f 2e       	mov	r9, r31
     b50:	f3 fd       	sbrc	r31, 3
     b52:	1a c0       	rjmp	.+52     	; 0xb88 <__stack+0x289>
     b54:	85 2d       	mov	r24, r5
     b56:	90 e0       	ldi	r25, 0x00	; 0
     b58:	08 17       	cp	r16, r24
     b5a:	19 07       	cpc	r17, r25
     b5c:	a8 f4       	brcc	.+42     	; 0xb88 <__stack+0x289>
     b5e:	b7 01       	movw	r22, r14
     b60:	80 e2       	ldi	r24, 0x20	; 32
     b62:	90 e0       	ldi	r25, 0x00	; 0
     b64:	0e 94 78 08 	call	0x10f0	; 0x10f0 <fputc>
     b68:	5a 94       	dec	r5
     b6a:	f4 cf       	rjmp	.-24     	; 0xb54 <__stack+0x255>
     b6c:	f6 01       	movw	r30, r12
     b6e:	97 fc       	sbrc	r9, 7
     b70:	85 91       	lpm	r24, Z+
     b72:	97 fe       	sbrs	r9, 7
     b74:	81 91       	ld	r24, Z+
     b76:	6f 01       	movw	r12, r30
     b78:	b7 01       	movw	r22, r14
     b7a:	90 e0       	ldi	r25, 0x00	; 0
     b7c:	0e 94 78 08 	call	0x10f0	; 0x10f0 <fputc>
     b80:	51 10       	cpse	r5, r1
     b82:	5a 94       	dec	r5
     b84:	01 50       	subi	r16, 0x01	; 1
     b86:	11 09       	sbc	r17, r1
     b88:	01 15       	cp	r16, r1
     b8a:	11 05       	cpc	r17, r1
     b8c:	79 f7       	brne	.-34     	; 0xb6c <__stack+0x26d>
     b8e:	f7 c0       	rjmp	.+494    	; 0xd7e <__stack+0x47f>
     b90:	84 36       	cpi	r24, 0x64	; 100
     b92:	11 f0       	breq	.+4      	; 0xb98 <__stack+0x299>
     b94:	89 36       	cpi	r24, 0x69	; 105
     b96:	61 f5       	brne	.+88     	; 0xbf0 <__stack+0x2f1>
     b98:	56 01       	movw	r10, r12
     b9a:	97 fe       	sbrs	r9, 7
     b9c:	09 c0       	rjmp	.+18     	; 0xbb0 <__stack+0x2b1>
     b9e:	24 e0       	ldi	r18, 0x04	; 4
     ba0:	a2 0e       	add	r10, r18
     ba2:	b1 1c       	adc	r11, r1
     ba4:	f6 01       	movw	r30, r12
     ba6:	60 81       	ld	r22, Z
     ba8:	71 81       	ldd	r23, Z+1	; 0x01
     baa:	82 81       	ldd	r24, Z+2	; 0x02
     bac:	93 81       	ldd	r25, Z+3	; 0x03
     bae:	0a c0       	rjmp	.+20     	; 0xbc4 <__stack+0x2c5>
     bb0:	f2 e0       	ldi	r31, 0x02	; 2
     bb2:	af 0e       	add	r10, r31
     bb4:	b1 1c       	adc	r11, r1
     bb6:	f6 01       	movw	r30, r12
     bb8:	60 81       	ld	r22, Z
     bba:	71 81       	ldd	r23, Z+1	; 0x01
     bbc:	07 2e       	mov	r0, r23
     bbe:	00 0c       	add	r0, r0
     bc0:	88 0b       	sbc	r24, r24
     bc2:	99 0b       	sbc	r25, r25
     bc4:	f9 2d       	mov	r31, r9
     bc6:	ff 76       	andi	r31, 0x6F	; 111
     bc8:	9f 2e       	mov	r9, r31
     bca:	97 ff       	sbrs	r25, 7
     bcc:	09 c0       	rjmp	.+18     	; 0xbe0 <__stack+0x2e1>
     bce:	90 95       	com	r25
     bd0:	80 95       	com	r24
     bd2:	70 95       	com	r23
     bd4:	61 95       	neg	r22
     bd6:	7f 4f       	sbci	r23, 0xFF	; 255
     bd8:	8f 4f       	sbci	r24, 0xFF	; 255
     bda:	9f 4f       	sbci	r25, 0xFF	; 255
     bdc:	f0 68       	ori	r31, 0x80	; 128
     bde:	9f 2e       	mov	r9, r31
     be0:	2a e0       	ldi	r18, 0x0A	; 10
     be2:	30 e0       	ldi	r19, 0x00	; 0
     be4:	a3 01       	movw	r20, r6
     be6:	0e 94 b4 08 	call	0x1168	; 0x1168 <__ultoa_invert>
     bea:	c8 2e       	mov	r12, r24
     bec:	c6 18       	sub	r12, r6
     bee:	3f c0       	rjmp	.+126    	; 0xc6e <__stack+0x36f>
     bf0:	09 2d       	mov	r16, r9
     bf2:	85 37       	cpi	r24, 0x75	; 117
     bf4:	21 f4       	brne	.+8      	; 0xbfe <__stack+0x2ff>
     bf6:	0f 7e       	andi	r16, 0xEF	; 239
     bf8:	2a e0       	ldi	r18, 0x0A	; 10
     bfa:	30 e0       	ldi	r19, 0x00	; 0
     bfc:	1d c0       	rjmp	.+58     	; 0xc38 <__stack+0x339>
     bfe:	09 7f       	andi	r16, 0xF9	; 249
     c00:	8f 36       	cpi	r24, 0x6F	; 111
     c02:	91 f0       	breq	.+36     	; 0xc28 <__stack+0x329>
     c04:	18 f4       	brcc	.+6      	; 0xc0c <__stack+0x30d>
     c06:	88 35       	cpi	r24, 0x58	; 88
     c08:	59 f0       	breq	.+22     	; 0xc20 <__stack+0x321>
     c0a:	c3 c0       	rjmp	.+390    	; 0xd92 <__stack+0x493>
     c0c:	80 37       	cpi	r24, 0x70	; 112
     c0e:	19 f0       	breq	.+6      	; 0xc16 <__stack+0x317>
     c10:	88 37       	cpi	r24, 0x78	; 120
     c12:	11 f0       	breq	.+4      	; 0xc18 <__stack+0x319>
     c14:	be c0       	rjmp	.+380    	; 0xd92 <__stack+0x493>
     c16:	00 61       	ori	r16, 0x10	; 16
     c18:	04 ff       	sbrs	r16, 4
     c1a:	09 c0       	rjmp	.+18     	; 0xc2e <__stack+0x32f>
     c1c:	04 60       	ori	r16, 0x04	; 4
     c1e:	07 c0       	rjmp	.+14     	; 0xc2e <__stack+0x32f>
     c20:	94 fe       	sbrs	r9, 4
     c22:	08 c0       	rjmp	.+16     	; 0xc34 <__stack+0x335>
     c24:	06 60       	ori	r16, 0x06	; 6
     c26:	06 c0       	rjmp	.+12     	; 0xc34 <__stack+0x335>
     c28:	28 e0       	ldi	r18, 0x08	; 8
     c2a:	30 e0       	ldi	r19, 0x00	; 0
     c2c:	05 c0       	rjmp	.+10     	; 0xc38 <__stack+0x339>
     c2e:	20 e1       	ldi	r18, 0x10	; 16
     c30:	30 e0       	ldi	r19, 0x00	; 0
     c32:	02 c0       	rjmp	.+4      	; 0xc38 <__stack+0x339>
     c34:	20 e1       	ldi	r18, 0x10	; 16
     c36:	32 e0       	ldi	r19, 0x02	; 2
     c38:	56 01       	movw	r10, r12
     c3a:	07 ff       	sbrs	r16, 7
     c3c:	09 c0       	rjmp	.+18     	; 0xc50 <__stack+0x351>
     c3e:	84 e0       	ldi	r24, 0x04	; 4
     c40:	a8 0e       	add	r10, r24
     c42:	b1 1c       	adc	r11, r1
     c44:	f6 01       	movw	r30, r12
     c46:	60 81       	ld	r22, Z
     c48:	71 81       	ldd	r23, Z+1	; 0x01
     c4a:	82 81       	ldd	r24, Z+2	; 0x02
     c4c:	93 81       	ldd	r25, Z+3	; 0x03
     c4e:	08 c0       	rjmp	.+16     	; 0xc60 <__stack+0x361>
     c50:	f2 e0       	ldi	r31, 0x02	; 2
     c52:	af 0e       	add	r10, r31
     c54:	b1 1c       	adc	r11, r1
     c56:	f6 01       	movw	r30, r12
     c58:	60 81       	ld	r22, Z
     c5a:	71 81       	ldd	r23, Z+1	; 0x01
     c5c:	80 e0       	ldi	r24, 0x00	; 0
     c5e:	90 e0       	ldi	r25, 0x00	; 0
     c60:	a3 01       	movw	r20, r6
     c62:	0e 94 b4 08 	call	0x1168	; 0x1168 <__ultoa_invert>
     c66:	c8 2e       	mov	r12, r24
     c68:	c6 18       	sub	r12, r6
     c6a:	0f 77       	andi	r16, 0x7F	; 127
     c6c:	90 2e       	mov	r9, r16
     c6e:	96 fe       	sbrs	r9, 6
     c70:	0b c0       	rjmp	.+22     	; 0xc88 <__stack+0x389>
     c72:	09 2d       	mov	r16, r9
     c74:	0e 7f       	andi	r16, 0xFE	; 254
     c76:	c1 16       	cp	r12, r17
     c78:	50 f4       	brcc	.+20     	; 0xc8e <__stack+0x38f>
     c7a:	94 fe       	sbrs	r9, 4
     c7c:	0a c0       	rjmp	.+20     	; 0xc92 <__stack+0x393>
     c7e:	92 fc       	sbrc	r9, 2
     c80:	08 c0       	rjmp	.+16     	; 0xc92 <__stack+0x393>
     c82:	09 2d       	mov	r16, r9
     c84:	0e 7e       	andi	r16, 0xEE	; 238
     c86:	05 c0       	rjmp	.+10     	; 0xc92 <__stack+0x393>
     c88:	dc 2c       	mov	r13, r12
     c8a:	09 2d       	mov	r16, r9
     c8c:	03 c0       	rjmp	.+6      	; 0xc94 <__stack+0x395>
     c8e:	dc 2c       	mov	r13, r12
     c90:	01 c0       	rjmp	.+2      	; 0xc94 <__stack+0x395>
     c92:	d1 2e       	mov	r13, r17
     c94:	04 ff       	sbrs	r16, 4
     c96:	0d c0       	rjmp	.+26     	; 0xcb2 <__stack+0x3b3>
     c98:	fe 01       	movw	r30, r28
     c9a:	ec 0d       	add	r30, r12
     c9c:	f1 1d       	adc	r31, r1
     c9e:	80 81       	ld	r24, Z
     ca0:	80 33       	cpi	r24, 0x30	; 48
     ca2:	11 f4       	brne	.+4      	; 0xca8 <__stack+0x3a9>
     ca4:	09 7e       	andi	r16, 0xE9	; 233
     ca6:	09 c0       	rjmp	.+18     	; 0xcba <__stack+0x3bb>
     ca8:	02 ff       	sbrs	r16, 2
     caa:	06 c0       	rjmp	.+12     	; 0xcb8 <__stack+0x3b9>
     cac:	d3 94       	inc	r13
     cae:	d3 94       	inc	r13
     cb0:	04 c0       	rjmp	.+8      	; 0xcba <__stack+0x3bb>
     cb2:	80 2f       	mov	r24, r16
     cb4:	86 78       	andi	r24, 0x86	; 134
     cb6:	09 f0       	breq	.+2      	; 0xcba <__stack+0x3bb>
     cb8:	d3 94       	inc	r13
     cba:	03 fd       	sbrc	r16, 3
     cbc:	11 c0       	rjmp	.+34     	; 0xce0 <__stack+0x3e1>
     cbe:	00 ff       	sbrs	r16, 0
     cc0:	06 c0       	rjmp	.+12     	; 0xcce <__stack+0x3cf>
     cc2:	1c 2d       	mov	r17, r12
     cc4:	d5 14       	cp	r13, r5
     cc6:	80 f4       	brcc	.+32     	; 0xce8 <__stack+0x3e9>
     cc8:	15 0d       	add	r17, r5
     cca:	1d 19       	sub	r17, r13
     ccc:	0d c0       	rjmp	.+26     	; 0xce8 <__stack+0x3e9>
     cce:	d5 14       	cp	r13, r5
     cd0:	58 f4       	brcc	.+22     	; 0xce8 <__stack+0x3e9>
     cd2:	b7 01       	movw	r22, r14
     cd4:	80 e2       	ldi	r24, 0x20	; 32
     cd6:	90 e0       	ldi	r25, 0x00	; 0
     cd8:	0e 94 78 08 	call	0x10f0	; 0x10f0 <fputc>
     cdc:	d3 94       	inc	r13
     cde:	f7 cf       	rjmp	.-18     	; 0xcce <__stack+0x3cf>
     ce0:	d5 14       	cp	r13, r5
     ce2:	10 f4       	brcc	.+4      	; 0xce8 <__stack+0x3e9>
     ce4:	5d 18       	sub	r5, r13
     ce6:	01 c0       	rjmp	.+2      	; 0xcea <__stack+0x3eb>
     ce8:	51 2c       	mov	r5, r1
     cea:	04 ff       	sbrs	r16, 4
     cec:	10 c0       	rjmp	.+32     	; 0xd0e <__stack+0x40f>
     cee:	b7 01       	movw	r22, r14
     cf0:	80 e3       	ldi	r24, 0x30	; 48
     cf2:	90 e0       	ldi	r25, 0x00	; 0
     cf4:	0e 94 78 08 	call	0x10f0	; 0x10f0 <fputc>
     cf8:	02 ff       	sbrs	r16, 2
     cfa:	17 c0       	rjmp	.+46     	; 0xd2a <__stack+0x42b>
     cfc:	01 fd       	sbrc	r16, 1
     cfe:	03 c0       	rjmp	.+6      	; 0xd06 <__stack+0x407>
     d00:	88 e7       	ldi	r24, 0x78	; 120
     d02:	90 e0       	ldi	r25, 0x00	; 0
     d04:	02 c0       	rjmp	.+4      	; 0xd0a <__stack+0x40b>
     d06:	88 e5       	ldi	r24, 0x58	; 88
     d08:	90 e0       	ldi	r25, 0x00	; 0
     d0a:	b7 01       	movw	r22, r14
     d0c:	0c c0       	rjmp	.+24     	; 0xd26 <__stack+0x427>
     d0e:	80 2f       	mov	r24, r16
     d10:	86 78       	andi	r24, 0x86	; 134
     d12:	59 f0       	breq	.+22     	; 0xd2a <__stack+0x42b>
     d14:	01 ff       	sbrs	r16, 1
     d16:	02 c0       	rjmp	.+4      	; 0xd1c <__stack+0x41d>
     d18:	8b e2       	ldi	r24, 0x2B	; 43
     d1a:	01 c0       	rjmp	.+2      	; 0xd1e <__stack+0x41f>
     d1c:	80 e2       	ldi	r24, 0x20	; 32
     d1e:	07 fd       	sbrc	r16, 7
     d20:	8d e2       	ldi	r24, 0x2D	; 45
     d22:	b7 01       	movw	r22, r14
     d24:	90 e0       	ldi	r25, 0x00	; 0
     d26:	0e 94 78 08 	call	0x10f0	; 0x10f0 <fputc>
     d2a:	c1 16       	cp	r12, r17
     d2c:	38 f4       	brcc	.+14     	; 0xd3c <__stack+0x43d>
     d2e:	b7 01       	movw	r22, r14
     d30:	80 e3       	ldi	r24, 0x30	; 48
     d32:	90 e0       	ldi	r25, 0x00	; 0
     d34:	0e 94 78 08 	call	0x10f0	; 0x10f0 <fputc>
     d38:	11 50       	subi	r17, 0x01	; 1
     d3a:	f7 cf       	rjmp	.-18     	; 0xd2a <__stack+0x42b>
     d3c:	ca 94       	dec	r12
     d3e:	f3 01       	movw	r30, r6
     d40:	ec 0d       	add	r30, r12
     d42:	f1 1d       	adc	r31, r1
     d44:	80 81       	ld	r24, Z
     d46:	b7 01       	movw	r22, r14
     d48:	90 e0       	ldi	r25, 0x00	; 0
     d4a:	0e 94 78 08 	call	0x10f0	; 0x10f0 <fputc>
     d4e:	c1 10       	cpse	r12, r1
     d50:	f5 cf       	rjmp	.-22     	; 0xd3c <__stack+0x43d>
     d52:	15 c0       	rjmp	.+42     	; 0xd7e <__stack+0x47f>
     d54:	f4 e0       	ldi	r31, 0x04	; 4
     d56:	f5 15       	cp	r31, r5
     d58:	60 f5       	brcc	.+88     	; 0xdb2 <__stack+0x4b3>
     d5a:	84 e0       	ldi	r24, 0x04	; 4
     d5c:	58 1a       	sub	r5, r24
     d5e:	93 fe       	sbrs	r9, 3
     d60:	1f c0       	rjmp	.+62     	; 0xda0 <__stack+0x4a1>
     d62:	01 11       	cpse	r16, r1
     d64:	27 c0       	rjmp	.+78     	; 0xdb4 <__stack+0x4b5>
     d66:	2c 85       	ldd	r18, Y+12	; 0x0c
     d68:	23 ff       	sbrs	r18, 3
     d6a:	2a c0       	rjmp	.+84     	; 0xdc0 <__stack+0x4c1>
     d6c:	08 e6       	ldi	r16, 0x68	; 104
     d6e:	10 e0       	ldi	r17, 0x00	; 0
     d70:	39 2d       	mov	r19, r9
     d72:	30 71       	andi	r19, 0x10	; 16
     d74:	93 2e       	mov	r9, r19
     d76:	f8 01       	movw	r30, r16
     d78:	84 91       	lpm	r24, Z
     d7a:	81 11       	cpse	r24, r1
     d7c:	24 c0       	rjmp	.+72     	; 0xdc6 <__stack+0x4c7>
     d7e:	55 20       	and	r5, r5
     d80:	09 f4       	brne	.+2      	; 0xd84 <__stack+0x485>
     d82:	e4 cc       	rjmp	.-1592   	; 0x74c <vfprintf+0x58>
     d84:	b7 01       	movw	r22, r14
     d86:	80 e2       	ldi	r24, 0x20	; 32
     d88:	90 e0       	ldi	r25, 0x00	; 0
     d8a:	0e 94 78 08 	call	0x10f0	; 0x10f0 <fputc>
     d8e:	5a 94       	dec	r5
     d90:	f6 cf       	rjmp	.-20     	; 0xd7e <__stack+0x47f>
     d92:	f7 01       	movw	r30, r14
     d94:	86 81       	ldd	r24, Z+6	; 0x06
     d96:	97 81       	ldd	r25, Z+7	; 0x07
     d98:	26 c0       	rjmp	.+76     	; 0xde6 <__stack+0x4e7>
     d9a:	8f ef       	ldi	r24, 0xFF	; 255
     d9c:	9f ef       	ldi	r25, 0xFF	; 255
     d9e:	23 c0       	rjmp	.+70     	; 0xde6 <__stack+0x4e7>
     da0:	b7 01       	movw	r22, r14
     da2:	80 e2       	ldi	r24, 0x20	; 32
     da4:	90 e0       	ldi	r25, 0x00	; 0
     da6:	0e 94 78 08 	call	0x10f0	; 0x10f0 <fputc>
     daa:	5a 94       	dec	r5
     dac:	51 10       	cpse	r5, r1
     dae:	f8 cf       	rjmp	.-16     	; 0xda0 <__stack+0x4a1>
     db0:	d8 cf       	rjmp	.-80     	; 0xd62 <__stack+0x463>
     db2:	51 2c       	mov	r5, r1
     db4:	b7 01       	movw	r22, r14
     db6:	80 2f       	mov	r24, r16
     db8:	90 e0       	ldi	r25, 0x00	; 0
     dba:	0e 94 78 08 	call	0x10f0	; 0x10f0 <fputc>
     dbe:	d3 cf       	rjmp	.-90     	; 0xd66 <__stack+0x467>
     dc0:	0c e6       	ldi	r16, 0x6C	; 108
     dc2:	10 e0       	ldi	r17, 0x00	; 0
     dc4:	d5 cf       	rjmp	.-86     	; 0xd70 <__stack+0x471>
     dc6:	91 10       	cpse	r9, r1
     dc8:	80 52       	subi	r24, 0x20	; 32
     dca:	b7 01       	movw	r22, r14
     dcc:	90 e0       	ldi	r25, 0x00	; 0
     dce:	0e 94 78 08 	call	0x10f0	; 0x10f0 <fputc>
     dd2:	0f 5f       	subi	r16, 0xFF	; 255
     dd4:	1f 4f       	sbci	r17, 0xFF	; 255
     dd6:	cf cf       	rjmp	.-98     	; 0xd76 <__stack+0x477>
     dd8:	23 e0       	ldi	r18, 0x03	; 3
     dda:	25 15       	cp	r18, r5
     ddc:	10 f4       	brcc	.+4      	; 0xde2 <__stack+0x4e3>
     dde:	83 e0       	ldi	r24, 0x03	; 3
     de0:	bd cf       	rjmp	.-134    	; 0xd5c <__stack+0x45d>
     de2:	51 2c       	mov	r5, r1
     de4:	c0 cf       	rjmp	.-128    	; 0xd66 <__stack+0x467>
     de6:	60 96       	adiw	r28, 0x10	; 16
     de8:	e2 e1       	ldi	r30, 0x12	; 18
     dea:	0c 94 13 07 	jmp	0xe26	; 0xe26 <__epilogue_restores__>

00000dee <__prologue_saves__>:
     dee:	2f 92       	push	r2
     df0:	3f 92       	push	r3
     df2:	4f 92       	push	r4
     df4:	5f 92       	push	r5
     df6:	6f 92       	push	r6
     df8:	7f 92       	push	r7
     dfa:	8f 92       	push	r8
     dfc:	9f 92       	push	r9
     dfe:	af 92       	push	r10
     e00:	bf 92       	push	r11
     e02:	cf 92       	push	r12
     e04:	df 92       	push	r13
     e06:	ef 92       	push	r14
     e08:	ff 92       	push	r15
     e0a:	0f 93       	push	r16
     e0c:	1f 93       	push	r17
     e0e:	cf 93       	push	r28
     e10:	df 93       	push	r29
     e12:	cd b7       	in	r28, 0x3d	; 61
     e14:	de b7       	in	r29, 0x3e	; 62
     e16:	ca 1b       	sub	r28, r26
     e18:	db 0b       	sbc	r29, r27
     e1a:	0f b6       	in	r0, 0x3f	; 63
     e1c:	f8 94       	cli
     e1e:	de bf       	out	0x3e, r29	; 62
     e20:	0f be       	out	0x3f, r0	; 63
     e22:	cd bf       	out	0x3d, r28	; 61
     e24:	09 94       	ijmp

00000e26 <__epilogue_restores__>:
     e26:	2a 88       	ldd	r2, Y+18	; 0x12
     e28:	39 88       	ldd	r3, Y+17	; 0x11
     e2a:	48 88       	ldd	r4, Y+16	; 0x10
     e2c:	5f 84       	ldd	r5, Y+15	; 0x0f
     e2e:	6e 84       	ldd	r6, Y+14	; 0x0e
     e30:	7d 84       	ldd	r7, Y+13	; 0x0d
     e32:	8c 84       	ldd	r8, Y+12	; 0x0c
     e34:	9b 84       	ldd	r9, Y+11	; 0x0b
     e36:	aa 84       	ldd	r10, Y+10	; 0x0a
     e38:	b9 84       	ldd	r11, Y+9	; 0x09
     e3a:	c8 84       	ldd	r12, Y+8	; 0x08
     e3c:	df 80       	ldd	r13, Y+7	; 0x07
     e3e:	ee 80       	ldd	r14, Y+6	; 0x06
     e40:	fd 80       	ldd	r15, Y+5	; 0x05
     e42:	0c 81       	ldd	r16, Y+4	; 0x04
     e44:	1b 81       	ldd	r17, Y+3	; 0x03
     e46:	aa 81       	ldd	r26, Y+2	; 0x02
     e48:	b9 81       	ldd	r27, Y+1	; 0x01
     e4a:	ce 0f       	add	r28, r30
     e4c:	d1 1d       	adc	r29, r1
     e4e:	0f b6       	in	r0, 0x3f	; 63
     e50:	f8 94       	cli
     e52:	de bf       	out	0x3e, r29	; 62
     e54:	0f be       	out	0x3f, r0	; 63
     e56:	cd bf       	out	0x3d, r28	; 61
     e58:	ed 01       	movw	r28, r26
     e5a:	08 95       	ret

00000e5c <do_rand>:
     e5c:	8f 92       	push	r8
     e5e:	9f 92       	push	r9
     e60:	af 92       	push	r10
     e62:	bf 92       	push	r11
     e64:	cf 92       	push	r12
     e66:	df 92       	push	r13
     e68:	ef 92       	push	r14
     e6a:	ff 92       	push	r15
     e6c:	cf 93       	push	r28
     e6e:	df 93       	push	r29
     e70:	ec 01       	movw	r28, r24
     e72:	68 81       	ld	r22, Y
     e74:	79 81       	ldd	r23, Y+1	; 0x01
     e76:	8a 81       	ldd	r24, Y+2	; 0x02
     e78:	9b 81       	ldd	r25, Y+3	; 0x03
     e7a:	61 15       	cp	r22, r1
     e7c:	71 05       	cpc	r23, r1
     e7e:	81 05       	cpc	r24, r1
     e80:	91 05       	cpc	r25, r1
     e82:	21 f4       	brne	.+8      	; 0xe8c <do_rand+0x30>
     e84:	64 e2       	ldi	r22, 0x24	; 36
     e86:	79 ed       	ldi	r23, 0xD9	; 217
     e88:	8b e5       	ldi	r24, 0x5B	; 91
     e8a:	97 e0       	ldi	r25, 0x07	; 7
     e8c:	2d e1       	ldi	r18, 0x1D	; 29
     e8e:	33 ef       	ldi	r19, 0xF3	; 243
     e90:	41 e0       	ldi	r20, 0x01	; 1
     e92:	50 e0       	ldi	r21, 0x00	; 0
     e94:	0e 94 12 09 	call	0x1224	; 0x1224 <__divmodsi4>
     e98:	49 01       	movw	r8, r18
     e9a:	5a 01       	movw	r10, r20
     e9c:	9b 01       	movw	r18, r22
     e9e:	ac 01       	movw	r20, r24
     ea0:	a7 ea       	ldi	r26, 0xA7	; 167
     ea2:	b1 e4       	ldi	r27, 0x41	; 65
     ea4:	0e 94 31 09 	call	0x1262	; 0x1262 <__muluhisi3>
     ea8:	6b 01       	movw	r12, r22
     eaa:	7c 01       	movw	r14, r24
     eac:	ac ee       	ldi	r26, 0xEC	; 236
     eae:	b4 ef       	ldi	r27, 0xF4	; 244
     eb0:	a5 01       	movw	r20, r10
     eb2:	94 01       	movw	r18, r8
     eb4:	0e 94 3f 09 	call	0x127e	; 0x127e <__mulohisi3>
     eb8:	dc 01       	movw	r26, r24
     eba:	cb 01       	movw	r24, r22
     ebc:	8c 0d       	add	r24, r12
     ebe:	9d 1d       	adc	r25, r13
     ec0:	ae 1d       	adc	r26, r14
     ec2:	bf 1d       	adc	r27, r15
     ec4:	b7 ff       	sbrs	r27, 7
     ec6:	03 c0       	rjmp	.+6      	; 0xece <do_rand+0x72>
     ec8:	01 97       	sbiw	r24, 0x01	; 1
     eca:	a1 09       	sbc	r26, r1
     ecc:	b0 48       	sbci	r27, 0x80	; 128
     ece:	88 83       	st	Y, r24
     ed0:	99 83       	std	Y+1, r25	; 0x01
     ed2:	aa 83       	std	Y+2, r26	; 0x02
     ed4:	bb 83       	std	Y+3, r27	; 0x03
     ed6:	9f 77       	andi	r25, 0x7F	; 127
     ed8:	df 91       	pop	r29
     eda:	cf 91       	pop	r28
     edc:	ff 90       	pop	r15
     ede:	ef 90       	pop	r14
     ee0:	df 90       	pop	r13
     ee2:	cf 90       	pop	r12
     ee4:	bf 90       	pop	r11
     ee6:	af 90       	pop	r10
     ee8:	9f 90       	pop	r9
     eea:	8f 90       	pop	r8
     eec:	08 95       	ret

00000eee <rand_r>:
     eee:	0e 94 2e 07 	call	0xe5c	; 0xe5c <do_rand>
     ef2:	08 95       	ret

00000ef4 <rand>:
     ef4:	80 e0       	ldi	r24, 0x00	; 0
     ef6:	91 e0       	ldi	r25, 0x01	; 1
     ef8:	0e 94 2e 07 	call	0xe5c	; 0xe5c <do_rand>
     efc:	08 95       	ret

00000efe <srand>:
     efe:	a0 e0       	ldi	r26, 0x00	; 0
     f00:	b0 e0       	ldi	r27, 0x00	; 0
     f02:	80 93 00 01 	sts	0x0100, r24	; 0x800100 <__data_start>
     f06:	90 93 01 01 	sts	0x0101, r25	; 0x800101 <__data_start+0x1>
     f0a:	a0 93 02 01 	sts	0x0102, r26	; 0x800102 <__data_start+0x2>
     f0e:	b0 93 03 01 	sts	0x0103, r27	; 0x800103 <__data_start+0x3>
     f12:	08 95       	ret

00000f14 <__ftoa_engine>:
     f14:	28 30       	cpi	r18, 0x08	; 8
     f16:	08 f0       	brcs	.+2      	; 0xf1a <__ftoa_engine+0x6>
     f18:	27 e0       	ldi	r18, 0x07	; 7
     f1a:	33 27       	eor	r19, r19
     f1c:	da 01       	movw	r26, r20
     f1e:	99 0f       	add	r25, r25
     f20:	31 1d       	adc	r19, r1
     f22:	87 fd       	sbrc	r24, 7
     f24:	91 60       	ori	r25, 0x01	; 1
     f26:	00 96       	adiw	r24, 0x00	; 0
     f28:	61 05       	cpc	r22, r1
     f2a:	71 05       	cpc	r23, r1
     f2c:	39 f4       	brne	.+14     	; 0xf3c <__ftoa_engine+0x28>
     f2e:	32 60       	ori	r19, 0x02	; 2
     f30:	2e 5f       	subi	r18, 0xFE	; 254
     f32:	3d 93       	st	X+, r19
     f34:	30 e3       	ldi	r19, 0x30	; 48
     f36:	2a 95       	dec	r18
     f38:	e1 f7       	brne	.-8      	; 0xf32 <__ftoa_engine+0x1e>
     f3a:	08 95       	ret
     f3c:	9f 3f       	cpi	r25, 0xFF	; 255
     f3e:	30 f0       	brcs	.+12     	; 0xf4c <__ftoa_engine+0x38>
     f40:	80 38       	cpi	r24, 0x80	; 128
     f42:	71 05       	cpc	r23, r1
     f44:	61 05       	cpc	r22, r1
     f46:	09 f0       	breq	.+2      	; 0xf4a <__ftoa_engine+0x36>
     f48:	3c 5f       	subi	r19, 0xFC	; 252
     f4a:	3c 5f       	subi	r19, 0xFC	; 252
     f4c:	3d 93       	st	X+, r19
     f4e:	91 30       	cpi	r25, 0x01	; 1
     f50:	08 f0       	brcs	.+2      	; 0xf54 <__ftoa_engine+0x40>
     f52:	80 68       	ori	r24, 0x80	; 128
     f54:	91 1d       	adc	r25, r1
     f56:	df 93       	push	r29
     f58:	cf 93       	push	r28
     f5a:	1f 93       	push	r17
     f5c:	0f 93       	push	r16
     f5e:	ff 92       	push	r15
     f60:	ef 92       	push	r14
     f62:	19 2f       	mov	r17, r25
     f64:	98 7f       	andi	r25, 0xF8	; 248
     f66:	96 95       	lsr	r25
     f68:	e9 2f       	mov	r30, r25
     f6a:	96 95       	lsr	r25
     f6c:	96 95       	lsr	r25
     f6e:	e9 0f       	add	r30, r25
     f70:	ff 27       	eor	r31, r31
     f72:	e6 53       	subi	r30, 0x36	; 54
     f74:	ff 4f       	sbci	r31, 0xFF	; 255
     f76:	99 27       	eor	r25, r25
     f78:	33 27       	eor	r19, r19
     f7a:	ee 24       	eor	r14, r14
     f7c:	ff 24       	eor	r15, r15
     f7e:	a7 01       	movw	r20, r14
     f80:	e7 01       	movw	r28, r14
     f82:	05 90       	lpm	r0, Z+
     f84:	08 94       	sec
     f86:	07 94       	ror	r0
     f88:	28 f4       	brcc	.+10     	; 0xf94 <__ftoa_engine+0x80>
     f8a:	36 0f       	add	r19, r22
     f8c:	e7 1e       	adc	r14, r23
     f8e:	f8 1e       	adc	r15, r24
     f90:	49 1f       	adc	r20, r25
     f92:	51 1d       	adc	r21, r1
     f94:	66 0f       	add	r22, r22
     f96:	77 1f       	adc	r23, r23
     f98:	88 1f       	adc	r24, r24
     f9a:	99 1f       	adc	r25, r25
     f9c:	06 94       	lsr	r0
     f9e:	a1 f7       	brne	.-24     	; 0xf88 <__ftoa_engine+0x74>
     fa0:	05 90       	lpm	r0, Z+
     fa2:	07 94       	ror	r0
     fa4:	28 f4       	brcc	.+10     	; 0xfb0 <__ftoa_engine+0x9c>
     fa6:	e7 0e       	add	r14, r23
     fa8:	f8 1e       	adc	r15, r24
     faa:	49 1f       	adc	r20, r25
     fac:	56 1f       	adc	r21, r22
     fae:	c1 1d       	adc	r28, r1
     fb0:	77 0f       	add	r23, r23
     fb2:	88 1f       	adc	r24, r24
     fb4:	99 1f       	adc	r25, r25
     fb6:	66 1f       	adc	r22, r22
     fb8:	06 94       	lsr	r0
     fba:	a1 f7       	brne	.-24     	; 0xfa4 <__ftoa_engine+0x90>
     fbc:	05 90       	lpm	r0, Z+
     fbe:	07 94       	ror	r0
     fc0:	28 f4       	brcc	.+10     	; 0xfcc <__ftoa_engine+0xb8>
     fc2:	f8 0e       	add	r15, r24
     fc4:	49 1f       	adc	r20, r25
     fc6:	56 1f       	adc	r21, r22
     fc8:	c7 1f       	adc	r28, r23
     fca:	d1 1d       	adc	r29, r1
     fcc:	88 0f       	add	r24, r24
     fce:	99 1f       	adc	r25, r25
     fd0:	66 1f       	adc	r22, r22
     fd2:	77 1f       	adc	r23, r23
     fd4:	06 94       	lsr	r0
     fd6:	a1 f7       	brne	.-24     	; 0xfc0 <__ftoa_engine+0xac>
     fd8:	05 90       	lpm	r0, Z+
     fda:	07 94       	ror	r0
     fdc:	20 f4       	brcc	.+8      	; 0xfe6 <__ftoa_engine+0xd2>
     fde:	49 0f       	add	r20, r25
     fe0:	56 1f       	adc	r21, r22
     fe2:	c7 1f       	adc	r28, r23
     fe4:	d8 1f       	adc	r29, r24
     fe6:	99 0f       	add	r25, r25
     fe8:	66 1f       	adc	r22, r22
     fea:	77 1f       	adc	r23, r23
     fec:	88 1f       	adc	r24, r24
     fee:	06 94       	lsr	r0
     ff0:	a9 f7       	brne	.-22     	; 0xfdc <__ftoa_engine+0xc8>
     ff2:	84 91       	lpm	r24, Z
     ff4:	10 95       	com	r17
     ff6:	17 70       	andi	r17, 0x07	; 7
     ff8:	41 f0       	breq	.+16     	; 0x100a <__ftoa_engine+0xf6>
     ffa:	d6 95       	lsr	r29
     ffc:	c7 95       	ror	r28
     ffe:	57 95       	ror	r21
    1000:	47 95       	ror	r20
    1002:	f7 94       	ror	r15
    1004:	e7 94       	ror	r14
    1006:	1a 95       	dec	r17
    1008:	c1 f7       	brne	.-16     	; 0xffa <__ftoa_engine+0xe6>
    100a:	e0 e7       	ldi	r30, 0x70	; 112
    100c:	f0 e0       	ldi	r31, 0x00	; 0
    100e:	68 94       	set
    1010:	15 90       	lpm	r1, Z+
    1012:	15 91       	lpm	r17, Z+
    1014:	35 91       	lpm	r19, Z+
    1016:	65 91       	lpm	r22, Z+
    1018:	95 91       	lpm	r25, Z+
    101a:	05 90       	lpm	r0, Z+
    101c:	7f e2       	ldi	r23, 0x2F	; 47
    101e:	73 95       	inc	r23
    1020:	e1 18       	sub	r14, r1
    1022:	f1 0a       	sbc	r15, r17
    1024:	43 0b       	sbc	r20, r19
    1026:	56 0b       	sbc	r21, r22
    1028:	c9 0b       	sbc	r28, r25
    102a:	d0 09       	sbc	r29, r0
    102c:	c0 f7       	brcc	.-16     	; 0x101e <__ftoa_engine+0x10a>
    102e:	e1 0c       	add	r14, r1
    1030:	f1 1e       	adc	r15, r17
    1032:	43 1f       	adc	r20, r19
    1034:	56 1f       	adc	r21, r22
    1036:	c9 1f       	adc	r28, r25
    1038:	d0 1d       	adc	r29, r0
    103a:	7e f4       	brtc	.+30     	; 0x105a <__ftoa_engine+0x146>
    103c:	70 33       	cpi	r23, 0x30	; 48
    103e:	11 f4       	brne	.+4      	; 0x1044 <__ftoa_engine+0x130>
    1040:	8a 95       	dec	r24
    1042:	e6 cf       	rjmp	.-52     	; 0x1010 <__ftoa_engine+0xfc>
    1044:	e8 94       	clt
    1046:	01 50       	subi	r16, 0x01	; 1
    1048:	30 f0       	brcs	.+12     	; 0x1056 <__ftoa_engine+0x142>
    104a:	08 0f       	add	r16, r24
    104c:	0a f4       	brpl	.+2      	; 0x1050 <__ftoa_engine+0x13c>
    104e:	00 27       	eor	r16, r16
    1050:	02 17       	cp	r16, r18
    1052:	08 f4       	brcc	.+2      	; 0x1056 <__ftoa_engine+0x142>
    1054:	20 2f       	mov	r18, r16
    1056:	23 95       	inc	r18
    1058:	02 2f       	mov	r16, r18
    105a:	7a 33       	cpi	r23, 0x3A	; 58
    105c:	28 f0       	brcs	.+10     	; 0x1068 <__ftoa_engine+0x154>
    105e:	79 e3       	ldi	r23, 0x39	; 57
    1060:	7d 93       	st	X+, r23
    1062:	2a 95       	dec	r18
    1064:	e9 f7       	brne	.-6      	; 0x1060 <__ftoa_engine+0x14c>
    1066:	10 c0       	rjmp	.+32     	; 0x1088 <__ftoa_engine+0x174>
    1068:	7d 93       	st	X+, r23
    106a:	2a 95       	dec	r18
    106c:	89 f6       	brne	.-94     	; 0x1010 <__ftoa_engine+0xfc>
    106e:	06 94       	lsr	r0
    1070:	97 95       	ror	r25
    1072:	67 95       	ror	r22
    1074:	37 95       	ror	r19
    1076:	17 95       	ror	r17
    1078:	17 94       	ror	r1
    107a:	e1 18       	sub	r14, r1
    107c:	f1 0a       	sbc	r15, r17
    107e:	43 0b       	sbc	r20, r19
    1080:	56 0b       	sbc	r21, r22
    1082:	c9 0b       	sbc	r28, r25
    1084:	d0 09       	sbc	r29, r0
    1086:	98 f0       	brcs	.+38     	; 0x10ae <__ftoa_engine+0x19a>
    1088:	23 95       	inc	r18
    108a:	7e 91       	ld	r23, -X
    108c:	73 95       	inc	r23
    108e:	7a 33       	cpi	r23, 0x3A	; 58
    1090:	08 f0       	brcs	.+2      	; 0x1094 <__ftoa_engine+0x180>
    1092:	70 e3       	ldi	r23, 0x30	; 48
    1094:	7c 93       	st	X, r23
    1096:	20 13       	cpse	r18, r16
    1098:	b8 f7       	brcc	.-18     	; 0x1088 <__ftoa_engine+0x174>
    109a:	7e 91       	ld	r23, -X
    109c:	70 61       	ori	r23, 0x10	; 16
    109e:	7d 93       	st	X+, r23
    10a0:	30 f0       	brcs	.+12     	; 0x10ae <__ftoa_engine+0x19a>
    10a2:	83 95       	inc	r24
    10a4:	71 e3       	ldi	r23, 0x31	; 49
    10a6:	7d 93       	st	X+, r23
    10a8:	70 e3       	ldi	r23, 0x30	; 48
    10aa:	2a 95       	dec	r18
    10ac:	e1 f7       	brne	.-8      	; 0x10a6 <__ftoa_engine+0x192>
    10ae:	11 24       	eor	r1, r1
    10b0:	ef 90       	pop	r14
    10b2:	ff 90       	pop	r15
    10b4:	0f 91       	pop	r16
    10b6:	1f 91       	pop	r17
    10b8:	cf 91       	pop	r28
    10ba:	df 91       	pop	r29
    10bc:	99 27       	eor	r25, r25
    10be:	87 fd       	sbrc	r24, 7
    10c0:	90 95       	com	r25
    10c2:	08 95       	ret

000010c4 <strnlen_P>:
    10c4:	fc 01       	movw	r30, r24
    10c6:	05 90       	lpm	r0, Z+
    10c8:	61 50       	subi	r22, 0x01	; 1
    10ca:	70 40       	sbci	r23, 0x00	; 0
    10cc:	01 10       	cpse	r0, r1
    10ce:	d8 f7       	brcc	.-10     	; 0x10c6 <strnlen_P+0x2>
    10d0:	80 95       	com	r24
    10d2:	90 95       	com	r25
    10d4:	8e 0f       	add	r24, r30
    10d6:	9f 1f       	adc	r25, r31
    10d8:	08 95       	ret

000010da <strnlen>:
    10da:	fc 01       	movw	r30, r24
    10dc:	61 50       	subi	r22, 0x01	; 1
    10de:	70 40       	sbci	r23, 0x00	; 0
    10e0:	01 90       	ld	r0, Z+
    10e2:	01 10       	cpse	r0, r1
    10e4:	d8 f7       	brcc	.-10     	; 0x10dc <strnlen+0x2>
    10e6:	80 95       	com	r24
    10e8:	90 95       	com	r25
    10ea:	8e 0f       	add	r24, r30
    10ec:	9f 1f       	adc	r25, r31
    10ee:	08 95       	ret

000010f0 <fputc>:
    10f0:	0f 93       	push	r16
    10f2:	1f 93       	push	r17
    10f4:	cf 93       	push	r28
    10f6:	df 93       	push	r29
    10f8:	fb 01       	movw	r30, r22
    10fa:	23 81       	ldd	r18, Z+3	; 0x03
    10fc:	21 fd       	sbrc	r18, 1
    10fe:	03 c0       	rjmp	.+6      	; 0x1106 <fputc+0x16>
    1100:	8f ef       	ldi	r24, 0xFF	; 255
    1102:	9f ef       	ldi	r25, 0xFF	; 255
    1104:	2c c0       	rjmp	.+88     	; 0x115e <fputc+0x6e>
    1106:	22 ff       	sbrs	r18, 2
    1108:	16 c0       	rjmp	.+44     	; 0x1136 <fputc+0x46>
    110a:	46 81       	ldd	r20, Z+6	; 0x06
    110c:	57 81       	ldd	r21, Z+7	; 0x07
    110e:	24 81       	ldd	r18, Z+4	; 0x04
    1110:	35 81       	ldd	r19, Z+5	; 0x05
    1112:	42 17       	cp	r20, r18
    1114:	53 07       	cpc	r21, r19
    1116:	44 f4       	brge	.+16     	; 0x1128 <fputc+0x38>
    1118:	a0 81       	ld	r26, Z
    111a:	b1 81       	ldd	r27, Z+1	; 0x01
    111c:	9d 01       	movw	r18, r26
    111e:	2f 5f       	subi	r18, 0xFF	; 255
    1120:	3f 4f       	sbci	r19, 0xFF	; 255
    1122:	31 83       	std	Z+1, r19	; 0x01
    1124:	20 83       	st	Z, r18
    1126:	8c 93       	st	X, r24
    1128:	26 81       	ldd	r18, Z+6	; 0x06
    112a:	37 81       	ldd	r19, Z+7	; 0x07
    112c:	2f 5f       	subi	r18, 0xFF	; 255
    112e:	3f 4f       	sbci	r19, 0xFF	; 255
    1130:	37 83       	std	Z+7, r19	; 0x07
    1132:	26 83       	std	Z+6, r18	; 0x06
    1134:	14 c0       	rjmp	.+40     	; 0x115e <fputc+0x6e>
    1136:	8b 01       	movw	r16, r22
    1138:	ec 01       	movw	r28, r24
    113a:	fb 01       	movw	r30, r22
    113c:	00 84       	ldd	r0, Z+8	; 0x08
    113e:	f1 85       	ldd	r31, Z+9	; 0x09
    1140:	e0 2d       	mov	r30, r0
    1142:	09 95       	icall
    1144:	89 2b       	or	r24, r25
    1146:	e1 f6       	brne	.-72     	; 0x1100 <fputc+0x10>
    1148:	d8 01       	movw	r26, r16
    114a:	16 96       	adiw	r26, 0x06	; 6
    114c:	8d 91       	ld	r24, X+
    114e:	9c 91       	ld	r25, X
    1150:	17 97       	sbiw	r26, 0x07	; 7
    1152:	01 96       	adiw	r24, 0x01	; 1
    1154:	17 96       	adiw	r26, 0x07	; 7
    1156:	9c 93       	st	X, r25
    1158:	8e 93       	st	-X, r24
    115a:	16 97       	sbiw	r26, 0x06	; 6
    115c:	ce 01       	movw	r24, r28
    115e:	df 91       	pop	r29
    1160:	cf 91       	pop	r28
    1162:	1f 91       	pop	r17
    1164:	0f 91       	pop	r16
    1166:	08 95       	ret

00001168 <__ultoa_invert>:
    1168:	fa 01       	movw	r30, r20
    116a:	aa 27       	eor	r26, r26
    116c:	28 30       	cpi	r18, 0x08	; 8
    116e:	51 f1       	breq	.+84     	; 0x11c4 <__ultoa_invert+0x5c>
    1170:	20 31       	cpi	r18, 0x10	; 16
    1172:	81 f1       	breq	.+96     	; 0x11d4 <__ultoa_invert+0x6c>
    1174:	e8 94       	clt
    1176:	6f 93       	push	r22
    1178:	6e 7f       	andi	r22, 0xFE	; 254
    117a:	6e 5f       	subi	r22, 0xFE	; 254
    117c:	7f 4f       	sbci	r23, 0xFF	; 255
    117e:	8f 4f       	sbci	r24, 0xFF	; 255
    1180:	9f 4f       	sbci	r25, 0xFF	; 255
    1182:	af 4f       	sbci	r26, 0xFF	; 255
    1184:	b1 e0       	ldi	r27, 0x01	; 1
    1186:	3e d0       	rcall	.+124    	; 0x1204 <__ultoa_invert+0x9c>
    1188:	b4 e0       	ldi	r27, 0x04	; 4
    118a:	3c d0       	rcall	.+120    	; 0x1204 <__ultoa_invert+0x9c>
    118c:	67 0f       	add	r22, r23
    118e:	78 1f       	adc	r23, r24
    1190:	89 1f       	adc	r24, r25
    1192:	9a 1f       	adc	r25, r26
    1194:	a1 1d       	adc	r26, r1
    1196:	68 0f       	add	r22, r24
    1198:	79 1f       	adc	r23, r25
    119a:	8a 1f       	adc	r24, r26
    119c:	91 1d       	adc	r25, r1
    119e:	a1 1d       	adc	r26, r1
    11a0:	6a 0f       	add	r22, r26
    11a2:	71 1d       	adc	r23, r1
    11a4:	81 1d       	adc	r24, r1
    11a6:	91 1d       	adc	r25, r1
    11a8:	a1 1d       	adc	r26, r1
    11aa:	20 d0       	rcall	.+64     	; 0x11ec <__ultoa_invert+0x84>
    11ac:	09 f4       	brne	.+2      	; 0x11b0 <__ultoa_invert+0x48>
    11ae:	68 94       	set
    11b0:	3f 91       	pop	r19
    11b2:	2a e0       	ldi	r18, 0x0A	; 10
    11b4:	26 9f       	mul	r18, r22
    11b6:	11 24       	eor	r1, r1
    11b8:	30 19       	sub	r19, r0
    11ba:	30 5d       	subi	r19, 0xD0	; 208
    11bc:	31 93       	st	Z+, r19
    11be:	de f6       	brtc	.-74     	; 0x1176 <__ultoa_invert+0xe>
    11c0:	cf 01       	movw	r24, r30
    11c2:	08 95       	ret
    11c4:	46 2f       	mov	r20, r22
    11c6:	47 70       	andi	r20, 0x07	; 7
    11c8:	40 5d       	subi	r20, 0xD0	; 208
    11ca:	41 93       	st	Z+, r20
    11cc:	b3 e0       	ldi	r27, 0x03	; 3
    11ce:	0f d0       	rcall	.+30     	; 0x11ee <__ultoa_invert+0x86>
    11d0:	c9 f7       	brne	.-14     	; 0x11c4 <__ultoa_invert+0x5c>
    11d2:	f6 cf       	rjmp	.-20     	; 0x11c0 <__ultoa_invert+0x58>
    11d4:	46 2f       	mov	r20, r22
    11d6:	4f 70       	andi	r20, 0x0F	; 15
    11d8:	40 5d       	subi	r20, 0xD0	; 208
    11da:	4a 33       	cpi	r20, 0x3A	; 58
    11dc:	18 f0       	brcs	.+6      	; 0x11e4 <__ultoa_invert+0x7c>
    11de:	49 5d       	subi	r20, 0xD9	; 217
    11e0:	31 fd       	sbrc	r19, 1
    11e2:	40 52       	subi	r20, 0x20	; 32
    11e4:	41 93       	st	Z+, r20
    11e6:	02 d0       	rcall	.+4      	; 0x11ec <__ultoa_invert+0x84>
    11e8:	a9 f7       	brne	.-22     	; 0x11d4 <__ultoa_invert+0x6c>
    11ea:	ea cf       	rjmp	.-44     	; 0x11c0 <__ultoa_invert+0x58>
    11ec:	b4 e0       	ldi	r27, 0x04	; 4
    11ee:	a6 95       	lsr	r26
    11f0:	97 95       	ror	r25
    11f2:	87 95       	ror	r24
    11f4:	77 95       	ror	r23
    11f6:	67 95       	ror	r22
    11f8:	ba 95       	dec	r27
    11fa:	c9 f7       	brne	.-14     	; 0x11ee <__ultoa_invert+0x86>
    11fc:	00 97       	sbiw	r24, 0x00	; 0
    11fe:	61 05       	cpc	r22, r1
    1200:	71 05       	cpc	r23, r1
    1202:	08 95       	ret
    1204:	9b 01       	movw	r18, r22
    1206:	ac 01       	movw	r20, r24
    1208:	0a 2e       	mov	r0, r26
    120a:	06 94       	lsr	r0
    120c:	57 95       	ror	r21
    120e:	47 95       	ror	r20
    1210:	37 95       	ror	r19
    1212:	27 95       	ror	r18
    1214:	ba 95       	dec	r27
    1216:	c9 f7       	brne	.-14     	; 0x120a <__ultoa_invert+0xa2>
    1218:	62 0f       	add	r22, r18
    121a:	73 1f       	adc	r23, r19
    121c:	84 1f       	adc	r24, r20
    121e:	95 1f       	adc	r25, r21
    1220:	a0 1d       	adc	r26, r0
    1222:	08 95       	ret

00001224 <__divmodsi4>:
    1224:	05 2e       	mov	r0, r21
    1226:	97 fb       	bst	r25, 7
    1228:	1e f4       	brtc	.+6      	; 0x1230 <__divmodsi4+0xc>
    122a:	00 94       	com	r0
    122c:	0e 94 29 09 	call	0x1252	; 0x1252 <__negsi2>
    1230:	57 fd       	sbrc	r21, 7
    1232:	07 d0       	rcall	.+14     	; 0x1242 <__divmodsi4_neg2>
    1234:	0e 94 44 09 	call	0x1288	; 0x1288 <__udivmodsi4>
    1238:	07 fc       	sbrc	r0, 7
    123a:	03 d0       	rcall	.+6      	; 0x1242 <__divmodsi4_neg2>
    123c:	4e f4       	brtc	.+18     	; 0x1250 <__divmodsi4_exit>
    123e:	0c 94 29 09 	jmp	0x1252	; 0x1252 <__negsi2>

00001242 <__divmodsi4_neg2>:
    1242:	50 95       	com	r21
    1244:	40 95       	com	r20
    1246:	30 95       	com	r19
    1248:	21 95       	neg	r18
    124a:	3f 4f       	sbci	r19, 0xFF	; 255
    124c:	4f 4f       	sbci	r20, 0xFF	; 255
    124e:	5f 4f       	sbci	r21, 0xFF	; 255

00001250 <__divmodsi4_exit>:
    1250:	08 95       	ret

00001252 <__negsi2>:
    1252:	90 95       	com	r25
    1254:	80 95       	com	r24
    1256:	70 95       	com	r23
    1258:	61 95       	neg	r22
    125a:	7f 4f       	sbci	r23, 0xFF	; 255
    125c:	8f 4f       	sbci	r24, 0xFF	; 255
    125e:	9f 4f       	sbci	r25, 0xFF	; 255
    1260:	08 95       	ret

00001262 <__muluhisi3>:
    1262:	0e 94 66 09 	call	0x12cc	; 0x12cc <__umulhisi3>
    1266:	a5 9f       	mul	r26, r21
    1268:	90 0d       	add	r25, r0
    126a:	b4 9f       	mul	r27, r20
    126c:	90 0d       	add	r25, r0
    126e:	a4 9f       	mul	r26, r20
    1270:	80 0d       	add	r24, r0
    1272:	91 1d       	adc	r25, r1
    1274:	11 24       	eor	r1, r1
    1276:	08 95       	ret

00001278 <__mulshisi3>:
    1278:	b7 ff       	sbrs	r27, 7
    127a:	0c 94 31 09 	jmp	0x1262	; 0x1262 <__muluhisi3>

0000127e <__mulohisi3>:
    127e:	0e 94 31 09 	call	0x1262	; 0x1262 <__muluhisi3>
    1282:	82 1b       	sub	r24, r18
    1284:	93 0b       	sbc	r25, r19
    1286:	08 95       	ret

00001288 <__udivmodsi4>:
    1288:	a1 e2       	ldi	r26, 0x21	; 33
    128a:	1a 2e       	mov	r1, r26
    128c:	aa 1b       	sub	r26, r26
    128e:	bb 1b       	sub	r27, r27
    1290:	fd 01       	movw	r30, r26
    1292:	0d c0       	rjmp	.+26     	; 0x12ae <__udivmodsi4_ep>

00001294 <__udivmodsi4_loop>:
    1294:	aa 1f       	adc	r26, r26
    1296:	bb 1f       	adc	r27, r27
    1298:	ee 1f       	adc	r30, r30
    129a:	ff 1f       	adc	r31, r31
    129c:	a2 17       	cp	r26, r18
    129e:	b3 07       	cpc	r27, r19
    12a0:	e4 07       	cpc	r30, r20
    12a2:	f5 07       	cpc	r31, r21
    12a4:	20 f0       	brcs	.+8      	; 0x12ae <__udivmodsi4_ep>
    12a6:	a2 1b       	sub	r26, r18
    12a8:	b3 0b       	sbc	r27, r19
    12aa:	e4 0b       	sbc	r30, r20
    12ac:	f5 0b       	sbc	r31, r21

000012ae <__udivmodsi4_ep>:
    12ae:	66 1f       	adc	r22, r22
    12b0:	77 1f       	adc	r23, r23
    12b2:	88 1f       	adc	r24, r24
    12b4:	99 1f       	adc	r25, r25
    12b6:	1a 94       	dec	r1
    12b8:	69 f7       	brne	.-38     	; 0x1294 <__udivmodsi4_loop>
    12ba:	60 95       	com	r22
    12bc:	70 95       	com	r23
    12be:	80 95       	com	r24
    12c0:	90 95       	com	r25
    12c2:	9b 01       	movw	r18, r22
    12c4:	ac 01       	movw	r20, r24
    12c6:	bd 01       	movw	r22, r26
    12c8:	cf 01       	movw	r24, r30
    12ca:	08 95       	ret

000012cc <__umulhisi3>:
    12cc:	a2 9f       	mul	r26, r18
    12ce:	b0 01       	movw	r22, r0
    12d0:	b3 9f       	mul	r27, r19
    12d2:	c0 01       	movw	r24, r0
    12d4:	a3 9f       	mul	r26, r19
    12d6:	70 0d       	add	r23, r0
    12d8:	81 1d       	adc	r24, r1
    12da:	11 24       	eor	r1, r1
    12dc:	91 1d       	adc	r25, r1
    12de:	b2 9f       	mul	r27, r18
    12e0:	70 0d       	add	r23, r0
    12e2:	81 1d       	adc	r24, r1
    12e4:	11 24       	eor	r1, r1
    12e6:	91 1d       	adc	r25, r1
    12e8:	08 95       	ret

000012ea <_exit>:
    12ea:	f8 94       	cli

000012ec <__stop_program>:
    12ec:	ff cf       	rjmp	.-2      	; 0x12ec <__stop_program>
